ccopy_reg
_reconstructor
p0
(cnltk.classify.naivebayes
NaiveBayesClassifier
p1
c__builtin__
object
p2
Ntp3
Rp4
(dp5
S'_labels'
p6
(lp7
S'10s'
p8
aS'20s'
p9
aS'30s'
p10
asS'_feature_probdist'
p11
(dp12
(g9
S'contains(college)'
p13
tp14
g0
(cnltk.probability
ELEProbDist
p15
g2
Ntp16
Rp17
(dp18
S'_gamma'
p19
F0.5
sS'_N'
p20
I79161
sS'_freqdist'
p21
g0
(cnltk.probability
FreqDist
p22
c__builtin__
dict
p23
(dp24
I00
I76697
sI01
I2464
stp25
Rp26
sS'_bins'
p27
I2
sS'_divisor'
p28
F79162.0
sbs(g8
S'contains(album)'
p29
tp30
g0
(g15
g2
Ntp31
Rp32
(dp33
g19
F0.5
sg20
I16364
sg21
g0
(g22
g23
(dp34
I00
I16304
sI01
I60
stp35
Rp36
sg27
I2
sg28
F16365.0
sbs(g9
S'contains(homework)'
p37
tp38
g0
(g15
g2
Ntp39
Rp40
(dp41
g19
F0.5
sg20
I79161
sg21
g0
(g22
g23
(dp42
I00
I78572
sI01
I589
stp43
Rp44
sg27
I2
sg28
F79162.0
sbs(g8
S'contains(maths)'
p45
tp46
g0
(g15
g2
Ntp47
Rp48
(dp49
g19
F0.5
sg20
I16364
sg21
g0
(g22
g23
(dp50
I00
I16349
sI01
I15
stp51
Rp52
sg27
I2
sg28
F16365.0
sbs(g10
S'contains(drunk)'
p53
tp54
g0
(g15
g2
Ntp55
Rp56
(dp57
g19
F0.5
sg20
I126261
sg21
g0
(g22
g23
(dp58
I00
I125816
sI01
I445
stp59
Rp60
sg27
I2
sg28
F126262.0
sbs(g9
S'contains(dumb)'
p61
tp62
g0
(g15
g2
Ntp63
Rp64
(dp65
g19
F0.5
sg20
I79161
sg21
g0
(g22
g23
(dp66
I00
I78999
sI01
I162
stp67
Rp68
sg27
I2
sg28
F79162.0
sbs(g10
S'contains(dating)'
p69
tp70
g0
(g15
g2
Ntp71
Rp72
(dp73
g19
F0.5
sg20
I126261
sg21
g0
(g22
g23
(dp74
I00
I124481
sI01
I1780
stp75
Rp76
sg27
I2
sg28
F126262.0
sbs(g9
S'contains(mum)'
p77
tp78
g0
(g15
g2
Ntp79
Rp80
(dp81
g19
F0.5
sg20
I79161
sg21
g0
(g22
g23
(dp82
I00
I78881
sI01
I280
stp83
Rp84
sg27
I2
sg28
F79162.0
sbs(g8
S'contains(boring)'
p85
tp86
g0
(g15
g2
Ntp87
Rp88
(dp89
g19
F0.5
sg20
I16364
sg21
g0
(g22
g23
(dp90
I00
I16165
sI01
I199
stp91
Rp92
sg27
I2
sg28
F16365.0
sbs(g10
S'contains(marriage)'
p93
tp94
g0
(g15
g2
Ntp95
Rp96
(dp97
g19
F0.5
sg20
I126261
sg21
g0
(g22
g23
(dp98
I00
I123789
sI01
I2472
stp99
Rp100
sg27
I2
sg28
F126262.0
sbs(g9
S'FRE'
p101
tp102
g0
(g15
g2
Ntp103
Rp104
(dp105
g19
F0.5
sg20
I79161
sg21
g0
(g22
g23
(dp106
F89.75
I269
sF44.75
I555
sF95.5
I85
sF10.25
I1
sF16.0
I5
sF17.0
I10
sF27.15
I52
sF-658.98
I1
sF-108.18
I1
sF39.0
I85
sF-66.22
I1
sF24.79
I10
sF22.43
I2
sF46.44
I172
sF-31.72
I2
sF14.64
I1
sF61.0
I6
sF143.9
I1
sF-18.53
I1
sF-69.27
I1
sF-72.31
I2
sF84.0
I116
sF123.26
I1
sF-28.69
I5
sF17.35
I1
sF-207.36
I1
sF-30.72
I1
sF-49.67
I2
sF106.0
I40
sF40.02
I4
sF83.33
I25
sF11.58
I10
sF60.31
I138
sF91.78
I69
sF75.54
I185
sF129.0
I7
sF-100.73
I1
sF-2.28
I1
sF-8.02
I1
sF151.0
I4
sF-161.97
I1
sF19.38
I1
sF11.25
I6
sF114.45
I21
sF-181.93
I2
sF37.98
I102
sF161.83
I1
sF11.94
I1
sF-92.98
I1
sF-2.97
I5
sF94.15
I277
sF18.7
I3
sF-45.61
I1
sF5.15
I11
sF-25.3
I2
sF-111.89
I1
sF-159.6
I2
sF113.44
I17
sF11.6
I1
sF-91.6
I2
sF10.91
I17
sF50.84
I116
sF4.83
I4
sF108.03
I77
sF-222.19
I1
sF-88.92
I1
sF20.04
I19
sF56.93
I162
sF-7.36
I5
sF88.06
I192
sF85.02
I96
sF139.5
I1
sF-58.78
I1
sF25.46
I35
sF-340.61
I1
sF65.05
I445
sF-17.52
I4
sF91.79
I10
sF-34.77
I1
sF-5.32
I2
sF-138.67
I1
sF-53.73
I2
sF45.42
I47
sF75.88
I169
sF79.26
I259
sF-40.87
I1
sF-82.46
I1
sF135.1
I17
sF15.99
I6
sF-4.32
I3
sF10.59
I1
sF-270.59
I1
sF19.05
I1
sF13.95
I23
sF6.86
I3
sF48.48
I10
sF-11.76
I1
sF-1285.91
I1
sF24.45
I13
sF13.96
I7
sF28.18
I5
sF157.43
I1
sF90.1
I1
sF18.37
I2
sF-0.94
I4
sF-59.45
I1
sF38.32
I19
sF-298.05
I1
sF52.88
I3
sF81.3
I20
sF123.93
I1
sF8.2
I21
sF5.16
I4
sF-297.32
I1
sF-72.65
I1
sF-19.87
I1
sF-84.52
I1
sF-127.82
I1
sF9.57
I2
sF-8.71
I3
sF-3.97
I2
sF38.67
I2
sF-34.08
I1
sF-233.02
I1
sF15.64
I17
sF107.69
I81
sF-11.07
I2
sF-83.13
I1
sF-158.63
I1
sF-176.9
I1
sF-74.71
I2
sF57.95
I105
sF67.09
I2
sF130.36
I2
sF58.62
I1445
sF-218.47
I1
sF43.39
I59
sF-91.97
I1
sF29.86
I51
sF-13.79
I2
sF-16.82
I2
sF-247.57
I1
sF-455.98
I1
sF-40.51
I1
sF60.32
I27
sF82.99
I3
sF-98.06
I1
sF-281.74
I1
sF44.41
I93
sF34.94
I43
sF76.56
I227
sF21.41
I4
sF-3.98
I11
sF97.2
I165
sF85.69
I429
sF-13.8
I1
sF-6.34
I2
sF-35.09
I1
sF1.43
I5
sF77.23
I324
sF74.19
I668
sF30.88
I20
sF9.56
I5
sF-155.25
I1
sF12.59
I4
sF15.65
I20
sF-524.67
I1
sF141.53
I4
sF-0.59
I2
sF48.81
I219
sF-178.6
I1
sF1.1
I2
sF18.02
I10
sF57.61
I1264
sF-162.64
I1
sF54.57
I8
sF-20.23
I5
sF32.23
I13
sF-57.11
I3
sF26.48
I33
sF-94.3
I1
sF-231.66
I1
sF98.89
I27
sF-51.67
I1
sF-51.68
I1
sF-32.39
I1
sF-93.62
I1
sF-51.02
I4
sF-488.46
I1
sF120.55
I43
sF-191.4
I1
sF-36.81
I1
sF-162.3
I1
sF14.29
I14
sF40.36
I5
sF93.48
I105
sF10.23
I4
sF147.96
I8
sF-143.74
I1
sF8.54
I1
sF-25.62
I3
sF-13.44
I1
sF70.47
I91
sF-154.57
I1
sF29.18
I64
sF-137.97
I1
sF123.59
I88
sF48.47
I160
sF28.85
I26
sF29.19
I11
sF-52.04
I3
sF-272.26
I1
sF102.61
I191
sF45.43
I54
sF65.06
I4
sF-21.57
I1
sF37.3
I157
sF-79.45
I1
sF-490.83
I1
sF-267.19
I1
sF-194.5
I1
sF-88.89
I2
sF-18.88
I1
sF-265.83
I1
sF-221.52
I1
sF-1763.3
I1
sF15.66
I1
sF100.58
I163
sF27.83
I54
sF-63.2
I1
sF35.27
I153
sF-91.93
I1
sF52.87
I115
sF15.31
I14
sF77.57
I286
sF92.13
I2
sF13.63
I4
sF-44.23
I1
sF23.09
I14
sF72.16
I908
sF-451.92
I1
sF36.98
I1
sF-144.04
I1
sF16.34
I2
sF56.26
I15
sF3.46
I3
sF7.52
I6
sF-45.59
I1
sF-0.24
I3
sF-347.37
I1
sF-1.26
I4
sF35.62
I5
sF-479.33
I1
sF148.97
I1
sF-142.73
I2
sF-46.28
I1
sF-37.12
I3
sF-84.49
I1
sF119.87
I4
sF4.48
I1
sF66.4
I102
sF46.1
I672
sF-106.14
I1
sF-58.13
I2
sF-470.53
I1
sF42.05
I11
sF96.86
I19
sF133.06
I83
sF116.83
I2
sF-16.5
I6
sF-23.26
I1
sF8.89
I2
sF-45.58
I1
sF-27.67
I4
sF93.82
I13
sF73.85
I177
sF-144.37
I1
sF25.8
I61
sF-54.38
I1
sF-14.11
I1
sF-195.8
I1
sF-371.06
I1
sF-28.34
I1
sF32.56
I23
sF77.91
I41
sF-1.95
I5
sF-298.99
I1
sF46.45
I7
sF-184.3
I1
sF27.5
I2
sF53.55
I490
sF-35.79
I1
sF-904.62
I1
sF47.12
I914
sF-106.82
I1
sF6.19
I2
sF11.26
I1
sF121.56
I83
sF36.96
I34
sF118.52
I25
sF-70.95
I1
sF-44.59
I1
sF82.65
I365
sF62.69
I21
sF115.81
I1
sF-362.26
I1
sF-150.17
I1
sF149.99
I1
sF98.55
I152
sF9.89
I9
sF19.04
I4
sF42.72
I565
sF51.52
I296
sF-55.06
I1
sF3.81
I4
sF20.38
I33
sF109.04
I50
sF-15.81
I1
sF9.22
I7
sF2.79
I3
sF22.08
I22
sF-15.48
I1
sF-20.91
I2
sF-527.03
I1
sF14.97
I16
sF-23.27
I3
sF-46.62
I2
sF-85.16
I1
sF-196.48
I1
sF-29.7
I3
sF27.16
I7
sF37.31
I14
sF1.45
I3
sF56.59
I928
sF84.34
I56
sF-11.41
I2
sF-113.29
I3
sF-40.19
I2
sF-105.84
I2
sF-461.42
I1
sF-11.77
I1
sF-293.25
I1
sF103.29
I9
sF-29.34
I1
sF150.66
I1
sF40.34
I78
sF45.76
I474
sF63.02
I321
sF78.93
I58
sF62.35
I33
sF-231.67
I1
sF-4.31
I4
sF100.24
I198
sF114.8
I1
sF-48.99
I1
sF66.75
I25
sF109.38
I5
sF28.5
I21
sF-728.5
I1
sF58.96
I117
sF86.71
I325
sF9.55
I5
sF-2919.04
I1
sF33.58
I149
sF48.14
I7
sF91.44
I50
sF23.77
I43
sF-102.42
I1
sF-179.95
I1
sF26.82
I20
sF4.49
I2
sF12.61
I5
sF28.52
I1
sF86.03
I166
sF-34.1
I3
sF30.2
I96
sF-97.04
I1
sF23.44
I1
sF-18.18
I2
sF63.37
I1
sF61.33
I188
sF33.93
I2
sF43.41
I1
sF-24.96
I2
sF95.18
I1
sF-376.47
I1
sF-27.32
I1
sF2.46
I1
sF-121.71
I1
sF-40.17
I1
sF-102.8
I1
sF111.41
I13
sF77.58
I1
sF134.08
I17
sF-125.81
I2
sF110.73
I1
sF0.77
I3
sF-8.37
I1
sF20.73
I8
sF-17.18
I1
sF-81.78
I1
sF-221.24
I1
sF-435.34
I1
sF19.71
I30
sF-43.91
I1
sF-241.82
I1
sF49.48
I48
sF79.95
I1
sF87.72
I385
sF-134.27
I3
sF102.28
I5
sF-30.02
I1
sF32.9
I49
sF-7.01
I3
sF-52.71
I1
sF-57.43
I1
sF87.05
I170
sF13.97
I2
sF-20.55
I2
sF64.71
I1213
sF26.15
I3
sF-47.95
I2
sF-10.73
I1
sF28.51
I38
sF-51.35
I1
sF-194.11
I1
sF16.67
I2
sF46.11
I4
sF-0.58
I4
sF-23.93
I2
sF-86.55
I1
sF163.86
I2
sF-8.72
I1
sF-2.29
I4
sF110.4
I13
sF21.75
I5
sF-74.68
I2
sF-70.65
I1
sF29.53
I6
sF-47.64
I2
sF73.51
I144
sF7.54
I2
sF-115.96
I1
sF-27.33
I3
sF-57.08
I2
sF-148.14
I1
sF49.83
I29
sF26.14
I52
sF21.4
I31
sF126.98
I14
sF10.57
I6
sF-13.46
I2
sF39.67
I467
sF-12.44
I1
sF-276.33
I1
sF-1.6
I2
sF-328.76
I1
sF124.61
I21
sF103.97
I22
sF-61.85
I1
sF80.62
I383
sF-228.68
I1
sF-99.41
I1
sF-158.24
I1
sF-47.29
I1
sF-104.83
I2
sF-85.85
I1
sF54.9
I107
sF31.9
I3
sF130.02
I17
sF54.22
I1326
sF-110.54
I1
sF80.96
I68
sF-156.23
I1
sF-56.09
I1
sF-175.5
I1
sF154.38
I1
sF-348.73
I1
sF-161.29
I1
sF-41.53
I1
sF75.55
I2
sF-34.78
I2
sF6.52
I5
sF-21.58
I1
sF90.09
I240
sF-1011.53
I1
sF24.46
I3
sF-50.68
I3
sF-354.14
I1
sF75.2
I444
sF89.76
I7
sF76.89
I2
sF111.07
I106
sF-72.68
I1
sF-23.94
I1
sF6.84
I11
sF-26.3
I1
sF-8.38
I2
sF69.79
I234
sF-233.36
I1
sF-17.5
I1
sF-49.64
I1
sF31.55
I99
sF-18.85
I1
sF-11.43
I1
sF105.66
I287
sF-214.81
I1
sF40.01
I116
sF24.12
I6
sF45.09
I479
sF-5.34
I1
sF-24.95
I2
sF52.54
I5
sF-157.91
I1
sF-3.64
I5
sF-1.93
I1
sF-235.73
I1
sF36.29
I15
sF-492.87
I1
sF5.84
I2
sF-43.21
I2
sF98.21
I137
sF77.24
I20
sF10.92
I2
sF-0.26
I2
sF136.79
I1
sF-41.21
I1
sF-55.39
I1
sF-65.54
I1
sF8.53
I3
sF107.35
I1
sF-82.49
I1
sF41.36
I98
sF1.77
I1
sF71.48
I94
sF30.21
I2
sF36.64
I2
sF-86.86
I2
sF-214.75
I1
sF88.4
I35
sF4.14
I9
sF-177.88
I1
sF34.93
I51
sF-56.07
I2
sF2.11
I4
sF-15.83
I7
sF-20.54
I3
sF14.63
I28
sF51.86
I32
sF101.59
I181
sF17.69
I2
sF59.97
I4
sF-53.03
I2
sF-6.68
I2
sF-140.32
I1
sF-54.74
I3
sF-26.63
I3
sF41.71
I15
sF-3.29
I1
sF6.85
I2
sF-39.84
I1
sF-15.13
I1
sF68.44
I78
sF-86.89
I1
sF35.95
I88
sF-55.76
I4
sF32.91
I36
sF-29.36
I2
sF52.19
I1701
sF-4.66
I2
sF73.17
I768
sF-78.4
I2
sF93.14
I345
sF-2.96
I1
sF30.87
I48
sF-12.08
I1
sF29.87
I3
sF-130.21
I2
sF70.13
I948
sF16.32
I17
sF87.73
I10
sF55.91
I97
sF-45.25
I2
sF-95.34
I1
sF132.05
I10
sF71.49
I2
sF-332.83
I1
sF62.68
I1682
sF27.84
I3
sF46.78
I406
sF64.72
I7
sF33.26
I1
sF-14.13
I1
sF-124.75
I1
sF117.84
I2
sF-127.79
I1
sF-45.92
I2
sF-5291.11
I1
sF113.1
I139
sF-44.93
I1
sF60.66
I10
sF-2.27
I1
sF66.74
I423
sF-372.08
I1
sF25.12
I31
sF18.36
I4
sF3.12
I7
sF42.38
I109
sF97.88
I21
sF-68.62
I3
sF-95.01
I2
sF43.05
I1
sF74.86
I39
sF-70.99
I1
sF-111.56
I1
sF94.83
I10
sF89.42
I34
sF-58.8
I1
sF-97.68
I1
sF24.78
I54
sF-173.81
I1
sF-380.87
I1
sF-148.78
I1
sF26.81
I49
sF38.33
I8
sF71.82
I223
sF46.79
I1
sF-257.04
I1
sF25.13
I9
sF-26.97
I1
sF-184.63
I1
sF-17.84
I1
sF-29.68
I1
sF-18.2
I5
sF-40.84
I2
sF66.41
I55
sF-149.45
I1
sF119.53
I27
sF51.85
I114
sF-67.26
I1
sF-54.07
I3
sF50.5
I269
sF-72.98
I1
sF74.87
I43
sF43.4
I46
sF138.82
I1
sF99.56
I190
sF96.52
I102
sF-213.73
I1
sF115.13
I222
sF24.44
I25
sF-27.31
I2
sF-137.61
I1
sF63.7
I1453
sF8.88
I11
sF15.32
I3
sF91.11
I234
sF-78.74
I2
sF33.24
I158
sF21.07
I4
sF-121.37
I1
sF-1.28
I11
sF64.37
I136
sF-156.26
I1
sF-392.47
I1
sF68.1
I795
sF1.09
I2
sF-133.25
I1
sF7.87
I2
sF-43.24
I4
sF-109.56
I1
sF82.66
I1
sF-408.96
I1
sF54.23
I7
sF63.03
I6
sF32.57
I81
sF-68.25
I2
sF-44.9
I2
sF-35.43
I1
sF68.77
I258
sF112.77
I3
sF44.07
I350
sF76.9
I42
sF-65.88
I1
sF-154.18
I1
sF58.63
I17
sF-81.48
I1
sF-77.05
I1
sF59.3
I229
sF-278.7
I1
sF-120.73
I2
sF-73.02
I4
sF107.01
I37
sF24.1
I9
sF-31.73
I2
sF82.31
I78
sF-128.85
I1
sF23.78
I2
sF56.25
I698
sF44.42
I5
sF117.17
I1
sF-349.4
I2
sF134.42
I1
sF59.64
I1715
sF-53.05
I6
sF30.89
I2
sF-95.69
I1
sF16.66
I13
sF5.49
I10
sF-9.38
I3
sF78.59
I346
sF81.64
I5
sF-220.22
I1
sF-3.96
I1
sF9.23
I4
sF5.51
I1
sF26.47
I13
sF-226.25
I1
sF37.65
I3
sF73.18
I12
sF-206.29
I1
sF-36.78
I1
sF-66.59
I1
sF132.39
I3
sF40.69
I507
sF49.49
I139
sF22.07
I17
sF18.01
I9
sF108.7
I48
sF6.17
I15
sF-74.37
I1
sF-5.66
I5
sF30.53
I27
sF-299.34
I1
sF-26.99
I1
sF53.21
I1624
sF-103.78
I1
sF-418.09
I2
sF22.09
I1
sF3.8
I2
sF112.42
I17
sF54.56
I651
sF-77.08
I3
sF-63.54
I1
sF-255.08
I1
sF92.8
I299
sF68.43
I2
sF3.82
I1
sF-37.15
I1
sF-519.59
I1
sF19.37
I19
sF9.91
I1
sF17.01
I3
sF0.42
I3
sF-115.95
I1
sF-41.2
I1
sF-12.77
I1
sF110.74
I1
sF20.05
I17
sF22.42
I7
sF-40.85
I1
sF-117.99
I1
sF71.83
I1
sF79.61
I2
sF8.55
I2
sF32.58
I1
sF-125.09
I1
sF-177.53
I1
sF109.72
I24
sF-195.52
I1
sF-16.83
I1
sF-28.33
I1
sF58.28
I277
sF10.58
I4
sF-23.95
I2
sF-42.22
I3
sF-140.65
I1
sF47.8
I16
sF-60.13
I1
sF31.89
I54
sF-4515.31
I1
sF-2.95
I1
sF101.94
I25
sF-291.55
I1
sF73.52
I1
sF4.47
I3
sF3.14
I2
sF-205.61
I1
sF-208.32
I1
sF-264.48
I1
sF-40.53
I1
sF-55.73
I1
sF-106.86
I1
sF-103.81
I1
sF17.68
I17
sF136.45
I3
sF106.67
I331
sF32.22
I140
sF41.02
I11
sF126.64
I7
sF-80.43
I1
sF-494.89
I1
sF67.76
I304
sF-143.36
I2
sF103.63
I253
sF-60.16
I1
sF121.23
I1
sF-74.03
I3
sF-104.49
I1
sF47.45
I20
sF-460.15
I1
sF34.6
I121
sF147.28
I1
sF19.03
I18
sF42.73
I2
sF98.22
I1
sF62.01
I256
sF-39.15
I1
sF-20.88
I1
sF67.08
I649
sF83.66
I354
sF-57.45
I1
sF-4.99
I3
sF75.21
I10
sF79.27
I10
sF43.74
I11
sF-113.92
I1
sF167.92
I1
sF69.8
I1
sF-7.03
I2
sF-2.61
I1
sF122.92
I2
sF69.45
I62
sF4.15
I2
sF-135.58
I1
sF-132.24
I1
sF-59.11
I1
sF-164.05
I2
sF-32.75
I2
sF28.84
I55
sF85.35
I3
sF20.39
I15
sF62.34
I186
sF64.04
I400
sF175.71
I2
sF-112.57
I1
sF99.91
I36
sF-2.63
I1
sF5.17
I1
sF52.2
I17
sF-167.72
I1
sF-54.04
I2
sF12.28
I3
sF33.25
I11
sF-6.33
I1
sF35.96
I5
sF-107.83
I1
sF12.95
I1
sF-38.84
I2
sF-0.92
I1
sF-22.57
I2
sF-43.56
I1
sF81.97
I75
sF-9.04
I2
sF1.44
I3
sF-77.73
I1
sF-34.76
I1
sF37.99
I5
sF-150.8
I1
sF57.27
I456
sF71.14
I963
sF142.88
I1
sF85.7
I1
sF121.9
I5
sF60.99
I197
sF13.28
I15
sF-13.78
I3
sF13.62
I10
sF65.73
I737
sF-6.35
I5
sF-0.93
I4
sF-44.25
I3
sF-16.16
I1
sF21.06
I35
sF-88.22
I1
sF-57.76
I1
sF-34.41
I2
sF108.36
I2
sF-305.42
I1
sF-149.79
I1
sF37.64
I279
sF34.26
I182
sF105.32
I9
sF43.06
I245
sF-87.23
I1
sF138.48
I3
sF-122.39
I1
sF-12.78
I3
sF-4.98
I1
sF160.48
I2
sF31.22
I12
sF4.82
I7
sF7.2
I3
sF-9.72
I1
sF90.43
I43
sF72.84
I22
sF-96.67
I3
sF10.56
I4
sF-33.76
I2
sF126.3
I1
sF17.34
I33
sF-7.69
I3
sF72.83
I94
sF67.42
I71
sF87.39
I23
sF-33.42
I3
sF-22.26
I2
sF38.31
I113
sF7.86
I2
sF-24.62
I2
sF-855.89
I1
sF20.72
I19
sF-66.56
I1
sF1.11
I2
sF58.97
I5
sF-19.89
I4
sF34.61
I3
sF64.38
I37
sF53.89
I54
sF-765.89
I1
sF-120.02
I1
sF-58.44
I1
sF95.17
I314
sF-6.01
I3
sF-121.41
I1
sF97.53
I118
sF112.09
I107
sF72.5
I143
sF-2073.21
I1
sF-36.11
I1
sF-126.82
I2
sF-125.43
I1
sF39.68
I8
sF-148.43
I1
sF-287.9
I1
sF92.12
I325
sF-90.95
I1
sF-154.52
I1
sF106.68
I2
sF13.61
I3
sF127.99
I11
sF50.16
I1452
sF-4.3
I1
sF69.11
I866
sF-76.74
I1
sF89.08
I191
sF83.67
I1
sF-1.27
I2
sF-409.29
I2
sF-10.39
I1
sF-64.87
I1
sF-19.21
I1
sF-129.19
I1
sF2.12
I4
sF22.76
I11
sF36.63
I231
sF58.29
I24
sF-19.19
I2
sF119.19
I1
sF-211.36
I1
sF-139.3
I1
sF-3.31
I3
sF-62.16
I2
sF-35.12
I10
sF-42.54
I1
sF113.78
I1
sF84.68
I424
sF-38.16
I1
sF50.51
I2
sF-415.38
I1
sF-9.73
I1
sF34.59
I1
sF10.24
I4
sF27.49
I51
sF125.96
I11
sF-29.01
I1
sF-21.24
I2
sF-118.36
I1
sF93.81
I2
sF142.54
I2
sF90.77
I293
sF40.35
I23
sF-13.45
I2
sF-75.05
I2
sF-88.55
I1
sF85.36
I31
sF-9.06
I4
sF-108.85
I2
sF-61.17
I1
sF-237.76
I1
sF146.94
I5
sF41.7
I550
sF-80.46
I3
sF38.66
I355
sF55.58
I780
sF82.32
I1
sF-192.75
I1
sF56.6
I13
sF-3.3
I1
sF-27.99
I1
sF80.28
I314
sF-37.46
I1
sF-32.05
I1
sF55.92
I55
sF-256.7
I1
sF29.52
I47
sF117.5
I18
sF-56.1
I1
sF-23.6
I2
sF-77.04
I1
sF-41.54
I1
sF-77.72
I1
sF41.37
I39
sF61.34
I1
sF12.27
I2
sF60.65
I1909
sF-269.89
I1
sF92.46
I84
sF110.06
I85
sF-12.76
I1
sF-28.01
I1
sF71.15
I5
sF-152.5
I1
sF-17.85
I1
sF-35.78
I1
sF-142.68
I1
sF31.21
I137
sF56.94
I6
sF177.4
I1
sF-48.65
I1
sF36.97
I55
sF-355.5
I1
sF45.77
I19
sF70.8
I108
sF12.26
I2
sF-96.37
I1
sF101.26
I19
sF-7.37
I1
sF-283.43
I2
sF-7.7
I3
sF-38.48
I2
sF81.29
I237
sF100.92
I24
sF-45.27
I6
sF11.59
I4
sF41.03
I162
sF-87.22
I1
sF-49.33
I2
sF140.51
I26
sF117.16
I214
sF36.28
I188
sF-113.58
I1
sF-129.15
I1
sF78.25
I383
sF12.6
I5
sF-124.79
I1
sF-87.54
I1
sF-97.38
I3
sF-110.23
I1
sF-116.63
I1
sF-139.99
I1
sF-5290.77
I1
sF25.47
I4
sF42.04
I206
sF-242.16
I1
sF14.98
I7
sF-15.15
I1
sF108.71
I3
sF-119.67
I1
sF115.47
I35
sF88.74
I299
sF-81.11
I2
sF33.59
I8
sF-9.4
I3
sF22.75
I43
sF-24.29
I2
sF102.95
I12
sF-48.31
I1
sF117.51
I1
sF-55.08
I2
sF-56.41
I1
sF53.88
I82
sF104.31
I5
sF82.98
I87
sF42.39
I5
sF79.94
I82
sF61.67
I1780
sF96.18
I317
sF135.44
I5
sF-20.89
I2
sF23.43
I30
sF-267.87
I1
sF66.07
I483
sF-73.69
I1
sF-7.02
I2
sF-10.41
I2
sF74.53
I167
sF-219.49
I1
sF-276.66
I1
sF22.41
I15
sF6.18
I2
sF11.93
I4
sF84.35
I1
sF-19.53
I6
sF47.46
I105
sF35.28
I17
sF69.12
I2
sF-118.7
I1
sF118.18
I89
sF116.15
I131
sF50.85
I4
sF-332.23
I1
sF-79.42
I1
sF-4.65
I1
sF30.54
I44
sF-10.07
I3
sF16.33
I6
sF57.94
I15
sF53.22
I1
sF12.94
I9
sF-10.75
I3
sF7.53
I4
sF-98.4
I2
sF-365.64
I1
sF-33.06
I1
sF-87.87
I1
sF-72.0
I2
sF-1.62
I2
sF81.63
I406
sF47.79
I344
sF99.23
I276
sF7.19
I3
sF96.19
I2
sF23.1
I5
sF-39.5
I2
sF-27.66
I1
sF18.35
I18
sF124.95
I5
sF-245.2
I1
sF-49.66
I1
sF-252.64
I1
sF43.73
I600
sF52.53
I357
sF76.22
I336
sF-65.57
I3
sF-153.56
I1
sF5.5
I1
sF-6.69
I2
sF-1327.8
I1
sF-30.38
I2
sF-58.46
I1
sF133.41
I1
sF-39.18
I1
sF-1483.47
I1
sF-89.6
I1
sF70.81
I31
sF-279.37
I2
sF94.49
I60
sF-97.01
I1
sF-23.61
I1
sF-181.59
I1
sF48.13
I1016
sF-231.73
I1
sF21.74
I35
sF-95.65
I1
sF131.04
I27
sF120.89
I4
sF104.98
I38
sF-53.39
I1
sF-17.86
I5
sF-18.51
I3
sF-256.71
I1
sF44.08
I5
sF83.32
I219
sF-14.81
I2
sF63.36
I183
sF106.34
I4
sF28.17
I53
sF33.92
I65
sF24.11
I24
sF14.3
I4
sF-161.63
I1
sF-43.55
I1
sF13.29
I4
sF-150.13
I2
sF51.18
I1607
sF-23.25
I1
sF92.47
I1
sF-87.91
I2
sF6.5
I4
sF158.44
I2
sF-139.68
I1
sF-108.89
I1
sF18.69
I19
sF-414.37
I1
sF-107.88
I1
sF49.15
I1232
sF2.44
I7
sF69.46
I1
sF5.83
I5
sF63.71
I1
sF-168.06
I1
sF125.62
I15
sF20.4
I2
sF-192.08
I1
sF-116.33
I1
sF-47.28
I1
sF20.06
I1
sF-204.26
I1
sF-14.79
I3
sF9.9
I5
sF54.91
I1
sF137.47
I5
sF-1109.3
I1
sF38.99
I51
sF122.58
I187
sF-244.52
I1
sF-24.6
I1
sF34.27
I5
sF-187.0
I1
sF55.24
I1012
sF-327.08
I1
sF-230.31
I1
sF-11.75
I1
sF116.48
I29
sF3.13
I2
sF79.6
I350
sF-92.27
I1
sF114.13
I1
sF153.37
I1
sF-56.77
I1
sF159.8
I1
sF-61.49
I1
sF31.56
I3
sF-108.52
I1
sF-71.66
I1
sF11.92
I5
sF94.16
I1
sF-114.3
I1
sF59.98
I154
sF0.43
I4
sF-21.89
I1
sF-8.7
I2
sF39.34
I21
sF-33.07
I1
sF-91.63
I1
sF-224.28
I1
sF-101.07
I1
sF-76.06
I1
sF25.81
I2
sF19.72
I1
sF68.78
I25
sF-79.76
I1
sF193.64
I1
sF49.82
I142
sF-94.0
I1
sF-51.7
I1
sF-168.11
I1
sF-24.26
I1
sF15.98
I8
sF0.08
I14
sF-5.67
I5
sF-29.69
I1
sF-65.55
I1
sF118.86
I2
sF104.64
I251
sF65.39
I84
sF-742.57
I1
sF-30.69
I1
sF114.12
I215
sF-185.03
I1
sF-41.86
I1
sF-64.56
I1
sF-50.0
I1
sF-70.96
I1
sF18.03
I2
sF39.33
I88
sF95.85
I14
sF-0.6
I4
sF35.61
I153
sF86.37
I29
sF50.17
I7
sF-85.88
I1
sF-95.99
I1
sF-16.48
I1
sF-2.62
I1
sF-275.31
I1
sF-16.84
I1
sF-18.19
I1
sF3.47
I1
sF-21.56
I2
sF7.88
I2
sF-6.0
I1
sF-5.0
I7
sF-166.7
I1
stp107
Rp108
sg27
I1890
sg28
F80106.0
sbs(g8
S'FKGL'
p109
tp110
g0
(g15
g2
Ntp111
Rp112
(dp113
g19
F0.5
sg20
I16364
sg21
g0
(g22
g23
(dp114
F9.5
I932
sF11.5
I803
sF4.0
I84
sF94.5
I1
sF8.0
I337
sF17.7
I32
sF10.0
I13
sF11.0
I4
sF13.0
I251
sF15.0
I134
sF-2.2
I20
sF17.0
I36
sF61.4
I1
sF20.9
I2
sF22.0
I6
sF24.0
I3
sF5.5
I1
sF80.1
I1
sF28.0
I4
sF29.0
I1
sF14.2
I236
sF0.5
I82
sF81.7
I1
sF36.0
I1
sF6.0
I204
sF38.0
I2
sF17.4
I16
sF43.0
I2
sF6.8
I287
sF3.3
I85
sF-7.3
I1
sF17.3
I37
sF77.4
I1
sF203.7
I1
sF21.3
I2
sF-1.5
I2
sF156.9
I1
sF90.2
I1
sF118.3
I1
sF11.9
I721
sF140.6
I1
sF12.7
I397
sF167.4
I1
sF19.8
I3
sF91.0
I1
sF2.5
I80
sF16.6
I56
sF46.5
I1
sF14.9
I6
sF29.6
I3
sF26.1
I2
sF-4.6
I3
sF51.6
I1
sF27.8
I3
sF-0.7
I29
sF109.0
I1
sF226.7
I1
sF3.6
I53
sF33.7
I1
sF173.7
I1
sF225.6
I1
sF20.0
I2
sF9.9
I939
sF3.7
I67
sF7.5
I12
sF1.3
I78
sF23.3
I1
sF19.4
I3
sF37.6
I1
sF26.3
I2
sF1.6
I1
sF19.7
I5
sF21.4
I2
sF13.5
I38
sF7.6
I449
sF37.5
I1
sF26.0
I2
sF46.9
I1
sF22.1
I1
sF15.9
I1
sF2.4
I5
sF35.2
I3
sF23.5
I1
sF3.2
I22
sF392.9
I1
sF24.5
I3
sF13.9
I20
sF25.9
I2
sF35.7
I2
sF51.3
I1
sF39.1
I1
sF10.4
I6
sF163.9
I1
sF30.5
I1
sF21.6
I5
sF4.8
I145
sF143.3
I1
sF4.4
I118
sF25.7
I1
sF22.4
I10
sF11.1
I954
sF12.3
I553
sF-1.8
I33
sF12.6
I103
sF31.3
I1
sF5.6
I139
sF36.7
I1
sF49.3
I1
sF39.5
I2
sF20.1
I7
sF32.5
I1
sF36.3
I1
sF24.8
I2
sF16.9
I26
sF53.2
I1
sF16.5
I13
sF15.3
I5
sF21.2
I5
sF-1.9
I2
sF22.9
I1
sF1.7
I73
sF29.8
I1
sF36.8
I1
sF57.1
I2
sF18.6
I1
sF4.5
I19
sF33.9
I1
sF23.6
I4
sF18.2
I3
sF60.2
I1
sF30.8
I1
sF30.6
I1
sF21.7
I3
sF28.3
I1
sF52.8
I2
sF37.8
I1
sF34.1
I1
sF18.8
I1
sF48.1
I1
sF10.3
I1065
sF41.5
I2
sF-1.4
I9
sF165.5
I1
sF12.2
I34
sF59.4
I1
sF15.5
I1
sF7.2
I385
sF25.5
I5
sF25.1
I6
sF33.2
I1
sF30.2
I2
sF23.9
I1
sF123.4
I1
sF35.4
I1
sF17.8
I10
sF11.4
I7
sF-3.4
I2
sF6.4
I228
sF27.9
I1
sF-0.3
I24
sF15.4
I99
sF35.9
I1
sF401.5
I1
sF39.3
I1
sF81.8
I1
sF9.6
I23
sF109.7
I1
sF124.9
I1
sF30.7
I2
sF4.1
I28
sF168.6
I1
sF24.7
I3
sF31.6
I2
sF83.6
I1
sF0.1
I57
sF-6.6
I1
sF183.8
I1
sF40.3
I1
sF163.6
I1
sF10.7
I1006
sF169.8
I1
sF23.2
I2
sF24.9
I2
sF9.1
I923
sF20.2
I3
sF2.1
I74
sF14.7
I4
sF214.7
I1
sF2.8
I2
sF13.1
I180
sF31.2
I3
sF381.2
I1
sF43.4
I1
sF298.5
I1
sF23.7
I4
sF9.2
I24
sF11.8
I40
sF2.9
I114
sF35.6
I2
sF65.6
I1
sF18.9
I19
sF27.4
I1
sF-5.4
I1
sF15.8
I67
sF20.8
I9
sF-1.1
I25
sF18.1
I24
sF988.9
I1
sF-4.2
I1
sF91.4
I1
sF60.6
I1
sF20.5
I5
sF16.2
I55
sF-3.8
I4
sF28.8
I1
sF8.3
I260
sF18.5
I18
sF19.3
I17
sF8.7
I693
sF8.4
I454
sF55.9
I1
sF26.6
I1
sF13.8
I266
sF13.4
I275
sF5.2
I141
sF27.1
I1
sF14.6
I150
sF28.7
I1
sF20.4
I1
sF102.4
I1
sF18.4
I1
sF40.4
I1
sF14.3
I1
sF32.1
I5
sF16.1
I12
sF28.4
I1
sF0.9
I60
sF22.8
I1
sF7.9
I292
sF-5.0
I1
sF24.1
I4
sF15.7
I6
sF169.4
I1
sF25.2
I1
sF33.3
I1
sF34.9
I3
sF8.8
I141
sF26.9
I2
sF33.1
I1
sF129.2
I1
sF32.3
I1
sF48.5
I1
sF7.1
I3
sF-3.0
I4
sF19.6
I3
stp115
Rp116
sg27
I830
sg28
F16779.0
sbs(g9
S'contains(beer)'
p117
tp118
g0
(g15
g2
Ntp119
Rp120
(dp121
g19
F0.5
sg20
I79161
sg21
g0
(g22
g23
(dp122
I00
I78780
sI01
I381
stp123
Rp124
sg27
I2
sg28
F79162.0
sbs(g9
S'contains(marriage)'
p125
tp126
g0
(g15
g2
Ntp127
Rp128
(dp129
g19
F0.5
sg20
I79161
sg21
g0
(g22
g23
(dp130
I00
I77741
sI01
I1420
stp131
Rp132
sg27
I2
sg28
F79162.0
sbs(g8
S'contains(dumb)'
p133
tp134
g0
(g15
g2
Ntp135
Rp136
(dp137
g19
F0.5
sg20
I16364
sg21
g0
(g22
g23
(dp138
I00
I16344
sI01
I20
stp139
Rp140
sg27
I2
sg28
F16365.0
sbs(g10
S'contains(semester)'
p141
tp142
g0
(g15
g2
Ntp143
Rp144
(dp145
g19
F0.5
sg20
I126261
sg21
g0
(g22
g23
(dp146
I00
I126160
sI01
I101
stp147
Rp148
sg27
I2
sg28
F126262.0
sbs(g9
S'contains(student)'
p149
tp150
g0
(g15
g2
Ntp151
Rp152
(dp153
g19
F0.5
sg20
I79161
sg21
g0
(g22
g23
(dp154
I00
I77918
sI01
I1243
stp155
Rp156
sg27
I2
sg28
F79162.0
sbs(g9
S'contains(boring)'
p157
tp158
g0
(g15
g2
Ntp159
Rp160
(dp161
g19
F0.5
sg20
I79161
sg21
g0
(g22
g23
(dp162
I00
I78360
sI01
I801
stp163
Rp164
sg27
I2
sg28
F79162.0
sbs(g10
S'contains(boring)'
p165
tp166
g0
(g15
g2
Ntp167
Rp168
(dp169
g19
F0.5
sg20
I126261
sg21
g0
(g22
g23
(dp170
I00
I125076
sI01
I1185
stp171
Rp172
sg27
I2
sg28
F126262.0
sbs(g8
S'contains(development)'
p173
tp174
g0
(g15
g2
Ntp175
Rp176
(dp177
g19
F0.5
sg20
I16364
sg21
g0
(g22
g23
(dp178
I00
I15562
sI01
I802
stp179
Rp180
sg27
I2
sg28
F16365.0
sbs(g8
S'contains(semester)'
p181
tp182
g0
(g15
g2
Ntp183
Rp184
(dp185
g19
F0.5
sg20
I16364
sg21
g0
(g22
g23
(dp186
I00
I16340
sI01
I24
stp187
Rp188
sg27
I2
sg28
F16365.0
sbs(g8
S'contains(drunk)'
p189
tp190
g0
(g15
g2
Ntp191
Rp192
(dp193
g19
F0.5
sg20
I16364
sg21
g0
(g22
g23
(dp194
I00
I16290
sI01
I74
stp195
Rp196
sg27
I2
sg28
F16365.0
sbs(g10
S'contains(beer)'
p197
tp198
g0
(g15
g2
Ntp199
Rp200
(dp201
g19
F0.5
sg20
I126261
sg21
g0
(g22
g23
(dp202
I00
I125567
sI01
I694
stp203
Rp204
sg27
I2
sg28
F126262.0
sbs(g10
S'contains(homework)'
p205
tp206
g0
(g15
g2
Ntp207
Rp208
(dp209
g19
F0.5
sg20
I126261
sg21
g0
(g22
g23
(dp210
I00
I125068
sI01
I1193
stp211
Rp212
sg27
I2
sg28
F126262.0
sbs(g9
S'contains(mad)'
p213
tp214
g0
(g15
g2
Ntp215
Rp216
(dp217
g19
F0.5
sg20
I79161
sg21
g0
(g22
g23
(dp218
I00
I78624
sI01
I537
stp219
Rp220
sg27
I2
sg28
F79162.0
sbs(g8
S'contains(student)'
p221
tp222
g0
(g15
g2
Ntp223
Rp224
(dp225
g19
F0.5
sg20
I16364
sg21
g0
(g22
g23
(dp226
I00
I16059
sI01
I305
stp227
Rp228
sg27
I2
sg28
F16365.0
sbs(g9
S'contains(awesome)'
p229
tp230
g0
(g15
g2
Ntp231
Rp232
(dp233
g19
F0.5
sg20
I79161
sg21
g0
(g22
g23
(dp234
I00
I77404
sI01
I1757
stp235
Rp236
sg27
I2
sg28
F79162.0
sbs(g10
S'contains(mum)'
p237
tp238
g0
(g15
g2
Ntp239
Rp240
(dp241
g19
F0.5
sg20
I126261
sg21
g0
(g22
g23
(dp242
I00
I125958
sI01
I303
stp243
Rp244
sg27
I2
sg28
F126262.0
sbs(g8
S'contains(mum)'
p245
tp246
g0
(g15
g2
Ntp247
Rp248
(dp249
g19
F0.5
sg20
I16364
sg21
g0
(g22
g23
(dp250
I00
I16285
sI01
I79
stp251
Rp252
sg27
I2
sg28
F16365.0
sbs(g10
S'contains(bar)'
p253
tp254
g0
(g15
g2
Ntp255
Rp256
(dp257
g19
F0.5
sg20
I126261
sg21
g0
(g22
g23
(dp258
I00
I123731
sI01
I2530
stp259
Rp260
sg27
I2
sg28
F126262.0
sbs(g9
S'contains(bar)'
p261
tp262
g0
(g15
g2
Ntp263
Rp264
(dp265
g19
F0.5
sg20
I79161
sg21
g0
(g22
g23
(dp266
I00
I77817
sI01
I1344
stp267
Rp268
sg27
I2
sg28
F79162.0
sbs(g9
S'contains(drunk)'
p269
tp270
g0
(g15
g2
Ntp271
Rp272
(dp273
g19
F0.5
sg20
I79161
sg21
g0
(g22
g23
(dp274
I00
I78662
sI01
I499
stp275
Rp276
sg27
I2
sg28
F79162.0
sbs(g10
S'contains(apartment)'
p277
tp278
g0
(g15
g2
Ntp279
Rp280
(dp281
g19
F0.5
sg20
I126261
sg21
g0
(g22
g23
(dp282
I00
I125120
sI01
I1141
stp283
Rp284
sg27
I2
sg28
F126262.0
sbs(g8
S'contains(dating)'
p285
tp286
g0
(g15
g2
Ntp287
Rp288
(dp289
g19
F0.5
sg20
I16364
sg21
g0
(g22
g23
(dp290
I00
I16131
sI01
I233
stp291
Rp292
sg27
I2
sg28
F16365.0
sbs(g10
g101
tp293
g0
(g15
g2
Ntp294
Rp295
(dp296
g19
F0.5
sg20
I126261
sg21
g0
(g22
g23
(dp297
F50.5
I456
sF78.25
I364
sF95.5
I31
sF90.09
I133
sF0.75
I1
sF-92.98
I2
sF-18.2
I8
sF16.0
I1
sF17.0
I34
sF-160.3
I2
sF-546.98
I1
sF39.0
I175
sF1.78
I1
sF-64.22
I1
sF24.79
I16
sF46.44
I272
sF14.64
I5
sF61.0
I1
sF-137.29
I1
sF81.64
I1
sF-314.23
I1
sF84.0
I71
sF107.01
I16
sF17.35
I1
sF-21.22
I1
sF-63.17
I1
sF106.0
I13
sF-133.89
I2
sF-76.74
I1
sF32.23
I13
sF83.33
I9
sF10.58
I5
sF129.0
I1
sF-97.69
I1
sF-100.73
I2
sF151.0
I3
sF-171.47
I1
sF19.38
I3
sF11.25
I17
sF-248.93
I1
sF37.98
I163
sF37.3
I274
sF96.52
I43
sF-238.46
I1
sF92.8
I246
sF-128.84
I1
sF76.9
I35
sF-183.65
I1
sF6.18
I1
sF-180.6
I1
sF51.86
I42
sF20.38
I29
sF24.78
I74
sF12.6
I8
sF-90.59
I1
sF-159.63
I1
sF-80.1
I1
sF9.91
I3
sF6.51
I2
sF108.03
I25
sF41.7
I1178
sF-135.94
I1
sF-85.17
I1
sF20.04
I14
sF-162.32
I1
sF-142.35
I1
sF56.93
I212
sF85.02
I74
sF-128.5
I5
sF25.46
I55
sF-24.96
I2
sF-80.8
I1
sF-25.64
I1
sF60.99
I390
sF-23.27
I3
sF7.19
I8
sF-56.77
I1
sF-6.33
I2
sF-141.67
I2
sF-103.81
I1
sF-151.19
I1
sF45.42
I55
sF97.88
I7
sF88.4
I8
sF48.13
I1971
sF-40.87
I1
sF-74.71
I1
sF135.1
I5
sF33.25
I13
sF-156.25
I1
sF-3.63
I1
sF-5.32
I3
sF-40.19
I1
sF-109.22
I1
sF13.95
I17
sF7.86
I8
sF48.48
I6
sF20.73
I13
sF-132.91
I1
sF-215.83
I1
sF24.45
I29
sF17.68
I30
sF47.8
I26
sF-144.73
I1
sF-0.94
I3
sF-261.1
I1
sF38.32
I30
sF-64.2
I1
sF-495.91
I1
sF-103.11
I1
sF-164.7
I3
sF-252.64
I1
sF73.18
I6
sF8.2
I39
sF-162.02
I1
sF-321.32
I1
sF-84.52
I2
sF-87.56
I1
sF-115.32
I2
sF9.57
I3
sF1.43
I4
sF38.67
I1
sF-122.75
I1
sF-45.58
I1
sF15.64
I17
sF-22.23
I1
sF107.69
I33
sF-10.07
I1
sF-2170.66
I1
sF79.26
I248
sF-187.4
I1
sF57.95
I176
sF72.5
I160
sF67.09
I3
sF-238.44
I1
sF-218.47
I1
sF21.07
I2
sF-113.97
I2
sF24.11
I48
sF-438.05
I1
sF-8.04
I3
sF-22.57
I1
sF-145.07
I1
sF34.6
I309
sF-201.58
I1
sF93.82
I4
sF-101.42
I1
sF60.32
I15
sF-53.73
I2
sF18.03
I1
sF19.04
I4
sF-16.14
I1
sF44.41
I179
sF34.94
I65
sF76.56
I309
sF54.22
I2709
sF63.02
I711
sF21.41
I3
sF-100.43
I1
sF97.2
I119
sF-135.28
I2
sF85.69
I322
sF-10.05
I1
sF-5.34
I3
sF-587.94
I1
sF77.23
I316
sF184.84
I2
sF74.19
I934
sF25.13
I8
sF91.79
I3
sF9.56
I5
sF-203.25
I1
sF-43.22
I1
sF15.65
I20
sF141.53
I1
sF-0.59
I4
sF40.01
I237
sF48.81
I442
sF68.78
I8
sF-313.55
I1
sF-186.35
I1
sF-93.99
I1
sF-34.75
I1
sF57.61
I2633
sF-138.64
I1
sF-375.12
I1
sF54.57
I5
sF121.9
I1
sF-1.28
I9
sF54.23
I8
sF-168.76
I1
sF-57.11
I3
sF26.48
I33
sF-188.41
I1
sF98.89
I8
sF-39.18
I1
sF-2.97
I1
sF13.28
I25
sF120.55
I11
sF-168.4
I1
sF-172.8
I1
sF-102.44
I1
sF14.29
I12
sF101.95
I1
sF75.88
I120
sF93.48
I47
sF15.98
I9
sF59.64
I3507
sF-89.59
I1
sF-424.86
I1
sF-128.83
I1
sF-109.91
I1
sF-30.37
I1
sF-13.44
I2
sF70.47
I110
sF-12.77
I1
sF29.18
I154
sF-137.97
I1
sF123.59
I24
sF32.22
I285
sF-98.04
I1
sF28.85
I29
sF-1761.94
I1
sF-119.35
I1
sF91.11
I147
sF65.06
I3
sF-26.32
I1
sF59.3
I359
sF-79.45
I3
sF-334.19
I1
sF118.18
I62
sF-46.28
I4
sF-118.36
I1
sF-131.2
I1
sF10.91
I21
sF100.58
I97
sF95.17
I166
sF-2.95
I3
sF-9.74
I1
sF-142.34
I1
sF-126.81
I1
sF10.56
I12
sF-1.62
I2
sF92.13
I1
sF13.63
I2
sF-49.98
I2
sF-250.95
I1
sF23.09
I51
sF17.34
I38
sF-166.04
I1
sF56.26
I14
sF6.17
I38
sF60.66
I3
sF-21.92
I1
sF-96.03
I1
sF-16.16
I2
sF58.62
I3038
sF4.16
I2
sF-62.53
I1
sF-84.49
I1
sF119.87
I1
sF66.4
I114
sF46.1
I1279
sF-81.14
I2
sF-36.13
I1
sF42.05
I4
sF96.86
I4
sF133.06
I30
sF27.5
I5
sF-642.07
I1
sF9.89
I13
sF-60.14
I1
sF19.37
I33
sF-68.96
I2
sF-144.72
I1
sF-11.09
I1
sF-22.92
I1
sF-198.54
I1
sF-179.6
I1
sF73.85
I163
sF54.91
I1
sF-153.87
I2
sF-9.38
I1
sF25.8
I112
sF-58.13
I2
sF-204.26
I1
sF-91.97
I1
sF32.56
I31
sF83.66
I328
sF-1.95
I6
sF-365.99
I2
sF46.45
I3
sF-394.75
I1
sF-173.53
I2
sF-4.99
I3
sF-181.59
I1
sF47.12
I1657
sF12.26
I13
sF121.56
I15
sF36.96
I30
sF118.52
I7
sF-146.77
I1
sF62.69
I12
sF82.31
I65
sF-24.61
I1
sF-170.46
I1
sF-130.2
I1
sF98.55
I83
sF8.89
I1
sF42.72
I1274
sF51.52
I510
sF-55.06
I1
sF3.81
I3
sF-152.16
I1
sF-132.19
I1
sF-76.71
I1
sF3.13
I4
sF12.94
I10
sF109.04
I11
sF-48.99
I2
sF14.97
I21
sF2.79
I2
sF22.08
I43
sF-20.55
I2
sF100.24
I128
sF-22.91
I1
sF143.9
I1
sF13.97
I2
sF-263.13
I1
sF-12.78
I4
sF-29.7
I1
sF-133.57
I1
sF16.66
I19
sF-135.27
I1
sF37.31
I31
sF-27.67
I1
sF56.59
I1946
sF84.34
I32
sF-45.94
I1
sF-78.09
I1
sF-203.94
I1
sF75.54
I235
sF-317.94
I1
sF40.34
I178
sF45.76
I974
sF64.37
I136
sF35.27
I325
sF78.93
I29
sF62.35
I25
sF-44.23
I1
sF-4.31
I4
sF-152.87
I1
sF-10.74
I1
sF-104.49
I1
sF-143.02
I1
sF28.5
I30
sF-177.9
I1
sF114.45
I6
sF-162.01
I1
sF-68.62
I1
sF63.71
I1
sF86.71
I252
sF9.55
I3
sF-143.72
I1
sF92.47
I1
sF-4588.73
I1
sF30.88
I38
sF48.14
I1
sF91.44
I16
sF18.02
I11
sF-7.37
I6
sF-317.27
I1
sF-198.2
I1
sF26.82
I11
sF5.49
I7
sF-54.05
I1
sF12.61
I9
sF-166.71
I1
sF-53.38
I1
sF86.03
I107
sF18.7
I5
sF-24.6
I1
sF-79.44
I1
sF23.44
I3
sF-63.54
I2
sF-106.48
I1
sF-438.38
I1
sF61.33
I191
sF-1184.41
I1
sF33.93
I1
sF16.33
I10
sF-226.61
I1
sF-125.43
I1
sF-87.89
I1
sF3.46
I2
sF-29.68
I1
sF-102.46
I1
sF-2.62
I7
sF-140.34
I1
sF-30.04
I1
sF111.41
I4
sF77.58
I3
sF134.08
I4
sF-189.43
I1
sF-125.81
I1
sF-294.93
I1
sF-90.95
I2
sF-13.12
I1
sF-85.54
I1
sF-47.27
I1
sF-221.24
I1
sF-177.21
I1
sF-142.01
I1
sF106.34
I2
sF-1165.81
I1
sF49.48
I55
sF58.28
I486
sF87.72
I239
sF53.56
I1
sF102.28
I2
sF-433.32
I1
sF37.65
I9
sF-6.01
I5
sF-9.39
I2
sF-124.45
I1
sF-126.1
I1
sF87.05
I105
sF9.22
I11
sF-25.3
I3
sF64.71
I2265
sF27.15
I111
sF-14.8
I1
sF79.27
I1
sF2.12
I3
sF-135.91
I1
sF-35.1
I1
sF16.67
I6
sF40.36
I1
sF53.88
I94
sF-0.58
I1
sF-164.67
I1
sF0.77
I1
sF8.21
I3
sF-144.37
I1
sF-81.81
I2
sF-8.72
I12
sF112.42
I5
sF110.4
I1
sF-485.07
I1
sF21.75
I3
sF-47.64
I1
sF73.51
I170
sF-428.58
I1
sF-27.33
I2
sF-20.89
I1
sF-161.64
I1
sF49.83
I31
sF31.89
I81
sF31.9
I2
sF126.98
I2
sF10.57
I2
sF-13.46
I1
sF-80.09
I1
sF-12.44
I4
sF-31.73
I1
sF39.67
I901
sF97.53
I55
sF-159.62
I1
sF-1.6
I2
sF-390.01
I2
sF-132.24
I1
sF103.97
I5
sF2.11
I14
sF-85.5
I1
sF-71.66
I1
sF-168.74
I1
sF-898.37
I1
sF35.62
I8
sF-150.47
I1
sF54.9
I112
sF130.02
I6
sF58.97
I3
sF-285.8
I1
sF80.96
I57
sF-404.54
I1
sF-56.09
I1
sF-36.81
I1
sF-8.03
I2
sF-361.59
I1
sF-34.78
I1
sF104.31
I1
sF7.52
I17
sF-21.58
I1
sF19.71
I47
sF-2.63
I4
sF40.02
I5
sF24.46
I1
sF-3.98
I3
sF-376.14
I1
sF75.2
I539
sF-679.96
I1
sF-1105.92
I1
sF93.14
I211
sF-725.3
I1
sF111.07
I25
sF-124.43
I1
sF-1109.2
I1
sF-23.94
I1
sF5.84
I3
sF160.81
I1
sF69.79
I249
sF-127.84
I1
sF-51.02
I2
sF-17.5
I1
sF-141.33
I1
sF20.05
I21
sF-176.21
I1
sF-17.85
I1
sF-593.69
I1
sF79.6
I411
sF-194.81
I2
sF34.26
I365
sF29.87
I3
sF66.75
I10
sF-6.34
I1
sF-295.95
I1
sF-167.06
I1
sF2.44
I7
sF-104.13
I3
sF-61.51
I1
sF-21.91
I1
sF-65.57
I1
sF-3.64
I2
sF-103.1
I1
sF-46.62
I4
sF36.29
I15
sF-133.23
I1
sF50.85
I1
sF-127.14
I1
sF2.45
I1
sF-3.31
I1
sF-83.17
I1
sF-88.58
I1
sF98.21
I52
sF77.24
I6
sF10.92
I1
sF-363.28
I1
sF-141.02
I1
sF2.46
I1
sF-41.21
I1
sF-0.26
I1
sF-239.17
I1
sF-109.54
I1
sF-268.21
I1
sF-36.11
I1
sF107.35
I3
sF41.36
I136
sF1.77
I4
sF71.48
I110
sF31.21
I224
sF36.64
I1
sF86.04
I7
sF-106.86
I4
sF-152.86
I1
sF-145.75
I1
sF-883.97
I1
sF-812.92
I1
sF4.14
I6
sF-172.51
I1
sF6.84
I3
sF-196.88
I1
sF62.68
I3588
sF-32.07
I1
sF-15.83
I4
sF-24.29
I2
sF14.63
I21
sF46.11
I1
sF-15.13
I1
sF-28.35
I3
sF101.59
I63
sF-50.32
I1
sF-81.48
I1
sF-149.47
I1
sF-197.87
I1
sF-295.01
I1
sF-60.49
I2
sF-30.38
I1
sF41.71
I6
sF-38.14
I2
sF6.85
I4
sF116.15
I83
sF113.44
I10
sF-180.58
I1
sF52.2
I12
sF-55.76
I3
sF-13.11
I2
sF-166.37
I1
sF-117.35
I1
sF32.91
I32
sF-29.36
I1
sF-8339.15
I1
sF-5.66
I2
sF73.17
I1267
sF-76.4
I2
sF-136.64
I1
sF-15.49
I1
sF-11.08
I2
sF-149.16
I1
sF24.12
I1
sF-130.21
I1
sF70.13
I1870
sF16.32
I35
sF87.73
I4
sF55.91
I84
sF-19.55
I1
sF-34.77
I2
sF-39.49
I1
sF-3.3
I4
sF127.99
I3
sF-332.83
I1
sF30.2
I209
sF45.43
I98
sF-277.67
I1
sF64.72
I8
sF-598.08
I1
sF-7.36
I1
sF-86.19
I1
sF-89.23
I1
sF-61.82
I1
sF-61.85
I1
sF66.74
I771
sF-485.08
I1
sF25.12
I52
sF18.36
I7
sF-109.2
I1
sF109.38
I1
sF-192.11
I3
sF42.38
I168
sF103.63
I103
sF-4.32
I8
sF-4272.39
I1
sF74.86
I38
sF-70.99
I2
sF-111.56
I1
sF94.83
I3
sF89.42
I16
sF-53.05
I3
sF-26.64
I2
sF-117.65
I1
sF29.53
I4
sF-59.14
I2
sF-136.28
I1
sF-114.96
I1
sF26.81
I94
sF38.33
I3
sF71.82
I189
sF46.79
I1
sF-14.47
I2
sF105.32
I2
sF-167.72
I1
sF-391.02
I1
sF49.15
I2416
sF-64.53
I1
sF-422.81
I1
sF-142.71
I1
sF-17.84
I1
sF-17.18
I1
sF-20.2
I1
sF-57.09
I1
sF66.41
I49
sF15.31
I27
sF-179.95
I1
sF119.53
I49
sF51.85
I118
sF-106.51
I1
sF-54.07
I2
sF44.75
I1156
sF74.87
I25
sF43.4
I85
sF99.56
I86
sF-83.51
I3
sF114.12
I76
sF115.13
I75
sF52.88
I2
sF-82.49
I1
sF-45.27
I4
sF-137.61
I2
sF63.7
I3067
sF8.88
I9
sF15.32
I3
sF29.52
I99
sF11.94
I1
sF33.24
I282
sF-335.54
I1
sF-109.87
I1
sF-185.34
I1
sF92.12
I197
sF-135.26
I2
sF68.1
I1598
sF29.19
I11
sF-29.69
I1
sF28.51
I54
sF-681.32
I1
sF-41.88
I1
sF62.34
I217
sF-43.24
I4
sF-313.88
I1
sF-83.16
I1
sF-27.31
I2
sF63.03
I2
sF32.57
I140
sF38.31
I220
sF-120.73
I1
sF31.55
I148
sF-54.4
I1
sF-35.43
I1
sF68.77
I384
sF44.07
I665
sF-97.38
I1
sF-185.68
I2
sF-106.17
I1
sF-76.73
I1
sF-192.78
I1
sF-73.02
I2
sF126.3
I1
sF-8.37
I1
sF1.1
I2
sF-20.23
I7
sF-196.85
I1
sF56.25
I1429
sF-74.7
I2
sF122.92
I2
sF-304.4
I1
sF43.39
I94
sF26.14
I125
sF-171.13
I1
sF-32.38
I1
sF-8.38
I3
sF-37.82
I2
sF-132.56
I1
sF158.78
I1
sF-16.84
I1
sF-51.36
I1
sF10.23
I15
sF77.91
I36
sF20.72
I45
sF-133.25
I1
sF60.65
I4042
sF-32.06
I2
sF30.87
I62
sF-66.59
I1
sF1.09
I3
sF40.69
I1097
sF49.49
I268
sF59.97
I2
sF22.07
I20
sF18.01
I16
sF-126.46
I1
sF123.26
I1
sF-145.42
I1
sF-175.19
I1
sF-502.68
I1
sF30.53
I44
sF-21.24
I3
sF103.29
I1
sF53.21
I3282
sF-79.78
I1
sF-186.01
I1
sF22.09
I1
sF3.8
I4
sF54.56
I1418
sF-123.08
I1
sF-52.04
I1
sF-178.58
I1
sF65.05
I999
sF-168.73
I1
sF-122.76
I1
sF17.01
I5
sF0.42
I2
sF-126.45
I2
sF-11.77
I1
sF-30.03
I1
sF-161.97
I1
sF-145.76
I1
sF22.42
I19
sF-34.1
I7
sF-15.47
I1
sF34.93
I34
sF8.55
I5
sF72.16
I1525
sF-61.17
I3
sF-106.14
I1
sF109.72
I10
sF-18.87
I1
sF-267.53
I1
sF46.78
I803
sF-5319.53
I1
sF-5.33
I1
sF-602.14
I1
sF-21.23
I1
sF11.58
I10
sF-37.47
I1
sF-137.65
I2
sF53.55
I964
sF20.39
I7
sF-5919.39
I1
sF68.44
I73
sF-426.55
I1
sF73.52
I1
sF4.47
I7
sF-161.32
I4
sF-211.37
I1
sF-4.66
I4
sF8.54
I2
sF136.45
I1
sF106.67
I187
sF41.02
I8
sF67.76
I426
sF-141.36
I2
sF-38.16
I2
sF-123.78
I1
sF47.45
I14
sF-7.35
I1
sF40.35
I46
sF-54.74
I3
sF-42.22
I5
sF19.03
I40
sF42.73
I1
sF98.22
I4
sF62.01
I517
sF22.41
I25
sF-42.9
I1
sF-18.88
I2
sF67.08
I1351
sF12.27
I3
sF-46.95
I2
sF-67.6
I2
sF-40.17
I1
sF75.21
I5
sF-188.39
I1
sF112.77
I1
sF37.99
I5
sF-77.42
I1
sF-308.88
I1
sF0.09
I2
sF-7.03
I2
sF108.36
I21
sF-151.85
I1
sF5.15
I14
sF-14.13
I2
sF-296.96
I1
sF-123.06
I1
sF-178.55
I1
sF-32.75
I3
sF28.84
I88
sF10.24
I6
sF13.96
I5
sF37.64
I553
sF-156.6
I1
sF64.04
I871
sF-44.91
I1
sF-65.54
I1
sF99.91
I10
sF-55.08
I4
sF5.17
I1
sF-177.22
I2
sF-826.29
I1
sF52.87
I151
sF-350.76
I1
sF-87.53
I1
sF35.96
I4
sF-36.79
I1
sF12.95
I3
sF-38.84
I1
sF94.15
I185
sF-108.89
I1
sF-88.92
I1
sF81.97
I44
sF71.49
I1
sF-9.04
I1
sF-25.29
I2
sF1.44
I3
sF-122.73
I1
sF124.61
I5
sF-9.05
I1
sF57.27
I989
sF71.14
I1717
sF131.38
I1
sF82.65
I362
sF43.74
I16
sF-13.78
I4
sF-107.5
I1
sF-133.55
I1
sF13.62
I11
sF65.73
I1347
sF-6.35
I7
sF105.66
I129
sF-0.93
I2
sF-7245.31
I1
sF-126.78
I1
sF-20.91
I1
sF-184.01
I1
sF-33.76
I3
sF79.61
I1
sF-258.42
I1
sF-182.29
I2
sF53.89
I77
sF77.57
I329
sF43.06
I506
sF38.34
I1
sF-69.63
I2
sF-2.96
I1
sF-4.98
I1
sF138.48
I3
sF31.22
I12
sF4.82
I7
sF-9.72
I1
sF90.43
I20
sF-21.9
I2
sF72.84
I17
sF-100.09
I1
sF-72.67
I2
sF147.96
I1
sF-129.87
I1
sF-3670.14
I1
sF-192.77
I1
sF-7.69
I1
sF72.83
I79
sF67.42
I85
sF87.39
I9
sF-22.26
I3
sF60.31
I195
sF6.86
I1
sF-20.22
I1
sF-160.66
I1
sF39.33
I172
sF1.11
I4
sF101.94
I6
sF-193.12
I1
sF64.38
I44
sF-138.62
I1
sF-35.12
I13
sF-124.1
I1
sF-62.19
I3
sF-171.8
I1
sF27.49
I76
sF-214.42
I1
sF-194.45
I1
sF-191.77
I1
sF-0.25
I2
sF117.5
I11
sF112.09
I52
sF-33.07
I1
sF100.25
I1
sF-679.62
I1
sF-62.86
I1
sF-68.93
I1
sF-107.86
I1
sF58.96
I225
sF124.95
I1
sF-152.52
I1
sF162.51
I1
sF-103.44
I1
sF89.75
I198
sF2.8
I1
sF50.16
I2925
sF-4.3
I1
sF69.11
I1634
sF-100.74
I1
sF89.08
I126
sF-590.3
I1
sF-1.27
I3
sF-201.24
I1
sF-8.36
I1
sF41.03
I314
sF-25.96
I1
sF-128.16
I1
sF-140.69
I1
sF-450.22
I1
sF66.07
I1123
sF22.76
I8
sF58.63
I6
sF52.54
I6
sF-19.19
I1
sF-931.0
I1
sF3.12
I7
sF-575.08
I1
sF-23.59
I3
sF-134.24
I1
sF-62.16
I1
sF-105.16
I1
sF-52.37
I1
sF91.78
I29
sF84.68
I348
sF-166.39
I1
sF50.51
I4
sF-126.47
I2
sF-10.73
I1
sF-20.9
I1
sF-69.29
I1
sF-165.03
I1
sF-75.69
I1
sF15.99
I9
sF21.74
I64
sF125.96
I2
sF-3.97
I2
sF-90.6
I2
sF-53.37
I1
sF-75.36
I1
sF131.04
I2
sF90.77
I149
sF-98.7
I1
sF-1.61
I1
sF-255.08
I1
sF-2225.13
I1
sF-170.79
I1
sF-235.05
I1
sF-233.7
I1
sF70.8
I104
sF-75.05
I1
sF36.3
I4
sF-108.55
I1
sF85.36
I18
sF-154.21
I1
sF105.33
I1
sF-181.93
I1
sF-144.76
I1
sF-346.36
I1
sF-5341.86
I1
sF35.95
I133
sF-80.46
I3
sF38.66
I757
sF55.58
I1529
sF-765.55
I1
sF-22.24
I2
sF-103.47
I1
sF4.83
I2
sF-52.71
I1
sF55.92
I97
sF8.53
I7
sF4.15
I5
sF-481.7
I1
sF115.47
I11
sF111.75
I1
sF-886.53
I1
sF24.44
I17
sF-41.54
I2
sF-110.22
I1
sF41.37
I55
sF-147.44
I1
sF92.46
I43
sF110.06
I28
sF-50.34
I1
sF71.15
I3
sF-152.5
I2
sF-46.26
I1
sF-111.92
I1
sF-138.29
I1
sF-35.78
I1
sF-15.48
I1
sF-146.09
I1
sF-31.04
I5
sF52.19
I3372
sF9.9
I2
sF-12.1
I1
sF45.09
I916
sF36.97
I99
sF45.77
I23
sF81.3
I5
sF-1.94
I2
sF11.26
I1
sF-120.37
I1
sF101.26
I9
sF-785.86
I1
sF-283.43
I1
sF-199.22
I1
sF-7.7
I1
sF-2.28
I3
sF81.29
I188
sF7.87
I2
sF-48.65
I3
sF4.48
I5
sF12.59
I4
sF140.51
I4
sF-200.89
I1
sF117.16
I135
sF36.28
I313
sF-101.08
I2
sF81.63
I489
sF50.84
I171
sF11.6
I1
sF-124.79
I2
sF-78.07
I1
sF-553.09
I1
sF25.47
I2
sF42.04
I390
sF-129.16
I1
sF14.98
I2
sF-15.15
I3
sF67.43
I1
sF56.6
I2
sF-1033.36
I1
sF88.74
I227
sF-294.94
I1
sF33.59
I11
sF-9.4
I9
sF22.75
I41
sF-1008.82
I1
sF-118.68
I1
sF-26.29
I1
sF102.95
I5
sF-59.81
I1
sF-89.56
I1
sF-166.72
I1
sF-43.91
I3
sF36.63
I490
sF88.06
I139
sF82.98
I56
sF42.39
I1
sF79.94
I40
sF61.67
I3895
sF96.18
I215
sF135.44
I1
sF23.43
I43
sF-165.06
I1
sF-73.69
I1
sF-7.02
I1
sF-10.41
I5
sF74.53
I223
sF-63.85
I1
sF94.5
I1
sF-129.49
I1
sF27.16
I9
sF-19.89
I1
sF32.9
I51
sF26.47
I25
sF11.93
I6
sF113.1
I44
sF-150.49
I1
sF47.46
I165
sF35.28
I33
sF69.12
I10
sF-34.09
I1
sF-36.47
I2
sF-488.12
I1
sF-249.29
I1
sF-157.26
I1
sF-4.65
I2
sF30.54
I113
sF-200.87
I1
sF-144.4
I1
sF27.83
I105
sF57.94
I13
sF62.02
I1
sF-10.75
I5
sF7.53
I5
sF-370.05
I1
sF-98.4
I3
sF-273.64
I1
sF-33.06
I1
sF-87.87
I1
sF-134.22
I1
sF-72.0
I4
sF-169.1
I1
sF-17.17
I1
sF-22.94
I2
sF99.23
I187
sF141.87
I1
sF96.19
I1
sF23.1
I4
sF-648.83
I1
sF-27.66
I1
sF18.35
I25
sF69.45
I76
sF-320.65
I1
sF-199.89
I1
sF43.73
I1221
sF52.53
I615
sF76.22
I415
sF-122.07
I1
sF-157.27
I1
sF5.5
I4
sF-6.69
I1
sF-57.43
I1
sF-127.8
I1
sF-191.06
I1
sF-77.73
I1
sF-89.6
I1
sF48.47
I278
sF70.81
I8
sF58.29
I20
sF-1101.18
I1
sF94.49
I31
sF-118.01
I1
sF-30.72
I1
sF-162.34
I1
sF-245.23
I1
sF26.49
I1
sF-72.65
I1
sF-54.72
I1
sF100.92
I12
sF-322.0
I1
sF120.89
I3
sF104.98
I5
sF5.16
I7
sF-17.86
I4
sF-366.66
I1
sF44.08
I7
sF83.32
I150
sF-10.06
I3
sF63.36
I167
sF-219.48
I1
sF-980.06
I1
sF78.59
I388
sF28.17
I127
sF33.92
I100
sF29.86
I92
sF14.3
I2
sF-193.78
I1
sF-159.96
I1
sF51.18
I3125
sF-87.91
I2
sF-247.63
I1
sF39.68
I10
sF-23.25
I1
sF-48.31
I1
sF23.77
I96
sF-112.91
I1
sF6.5
I4
sF11.59
I9
sF-105.8
I1
sF-76.04
I1
sF18.69
I34
sF-150.13
I1
sF-107.88
I1
sF-93.32
I2
sF-306.51
I1
sF5.83
I4
sF-148.81
I1
sF125.62
I2
sF21.4
I34
sF-14.81
I4
sF-262.12
I1
sF-47.28
I1
sF20.06
I1
sF-156.26
I1
sF108.7
I12
sF-81.8
I1
sF137.47
I2
sF102.61
I91
sF-38.15
I1
sF38.99
I42
sF122.58
I29
sF47.79
I596
sF-965.38
I1
sF55.24
I2103
sF-118.02
I1
sF116.48
I5
sF2.13
I2
sF-136.96
I1
sF-101.77
I1
sF-28.0
I1
sF-158.25
I1
sF-193.13
I1
sF31.56
I6
sF-124.77
I1
sF11.92
I7
sF94.16
I1
sF59.98
I307
sF-105.5
I1
sF0.43
I1
sF-31.39
I1
sF-14.45
I2
sF7.18
I2
sF39.34
I44
sF-42.21
I1
sF-117.0
I1
sF-204.97
I1
sF-216.78
I1
sF-76.06
I2
sF21.06
I50
sF19.72
I1
sF80.28
I253
sF124.27
I1
sF49.82
I286
sF-51.7
I3
sF0.08
I7
sF-138.67
I1
sF-5.67
I6
sF-307.79
I1
sF-73.0
I1
sF118.86
I1
sF104.64
I95
sF65.39
I95
sF-28.69
I1
sF80.62
I440
sF-169.78
I1
sF-163.03
I1
sF-51.0
I2
sF23.78
I3
sF33.58
I236
sF-135.6
I1
sF95.85
I3
sF35.61
I340
sF-170.48
I1
sF86.37
I14
sF50.17
I9
sF-1788.33
I1
sF-27.0
I2
sF-195.83
I1
sF-160.63
I2
sF-478.31
I1
sF-156.24
I1
sF-69.97
I3
sF-18.19
I1
sF-47.3
I4
sF3.47
I3
sF-6.0
I1
sF-188.7
I1
stp298
Rp299
sg27
I1890
sg28
F127206.0
sbs(g9
S'contains(album)'
p300
tp301
g0
(g15
g2
Ntp302
Rp303
(dp304
g19
F0.5
sg20
I79161
sg21
g0
(g22
g23
(dp305
I00
I78836
sI01
I325
stp306
Rp307
sg27
I2
sg28
F79162.0
sbs(g10
S'contains(college)'
p308
tp309
g0
(g15
g2
Ntp310
Rp311
(dp312
g19
F0.5
sg20
I126261
sg21
g0
(g22
g23
(dp313
I00
I121668
sI01
I4593
stp314
Rp315
sg27
I2
sg28
F126262.0
sbs(g9
S'contains(sis)'
p316
tp317
g0
(g15
g2
Ntp318
Rp319
(dp320
g19
F0.5
sg20
I79161
sg21
g0
(g22
g23
(dp321
I00
I79097
sI01
I64
stp322
Rp323
sg27
I2
sg28
F79162.0
sbs(g8
S'contains(college)'
p324
tp325
g0
(g15
g2
Ntp326
Rp327
(dp328
g19
F0.5
sg20
I16364
sg21
g0
(g22
g23
(dp329
I00
I15715
sI01
I649
stp330
Rp331
sg27
I2
sg28
F16365.0
sbs(g8
S'contains(homework)'
p332
tp333
g0
(g15
g2
Ntp334
Rp335
(dp336
g19
F0.5
sg20
I16364
sg21
g0
(g22
g23
(dp337
I00
I16187
sI01
I177
stp338
Rp339
sg27
I2
sg28
F16365.0
sbs(g10
S'contains(development)'
p340
tp341
g0
(g15
g2
Ntp342
Rp343
(dp344
g19
F0.5
sg20
I126261
sg21
g0
(g22
g23
(dp345
I00
I119677
sI01
I6584
stp346
Rp347
sg27
I2
sg28
F126262.0
sbs(g9
S'contains(apartment)'
p348
tp349
g0
(g15
g2
Ntp350
Rp351
(dp352
g19
F0.5
sg20
I79161
sg21
g0
(g22
g23
(dp353
I00
I78584
sI01
I577
stp354
Rp355
sg27
I2
sg28
F79162.0
sbs(g10
S'contains(crappy)'
p356
tp357
g0
(g15
g2
Ntp358
Rp359
(dp360
g19
F0.5
sg20
I126261
sg21
g0
(g22
g23
(dp361
I00
I126183
sI01
I78
stp362
Rp363
sg27
I2
sg28
F126262.0
sbs(g8
S'contains(bar)'
p364
tp365
g0
(g15
g2
Ntp366
Rp367
(dp368
g19
F0.5
sg20
I16364
sg21
g0
(g22
g23
(dp369
I00
I16049
sI01
I315
stp370
Rp371
sg27
I2
sg28
F16365.0
sbs(g8
S'contains(apartment)'
p372
tp373
g0
(g15
g2
Ntp374
Rp375
(dp376
g19
F0.5
sg20
I16364
sg21
g0
(g22
g23
(dp377
I00
I16220
sI01
I144
stp378
Rp379
sg27
I2
sg28
F16365.0
sbs(g10
S'contains(student)'
p380
tp381
g0
(g15
g2
Ntp382
Rp383
(dp384
g19
F0.5
sg20
I126261
sg21
g0
(g22
g23
(dp385
I00
I124317
sI01
I1944
stp386
Rp387
sg27
I2
sg28
F126262.0
sbs(g9
S'contains(someday)'
p388
tp389
g0
(g15
g2
Ntp390
Rp391
(dp392
g19
F0.5
sg20
I79161
sg21
g0
(g22
g23
(dp393
I00
I78879
sI01
I282
stp394
Rp395
sg27
I2
sg28
F79162.0
sbs(g10
S'contains(bored)'
p396
tp397
g0
(g15
g2
Ntp398
Rp399
(dp400
g19
F0.5
sg20
I126261
sg21
g0
(g22
g23
(dp401
I00
I125319
sI01
I942
stp402
Rp403
sg27
I2
sg28
F126262.0
sbs(g8
S'contains(beer)'
p404
tp405
g0
(g15
g2
Ntp406
Rp407
(dp408
g19
F0.5
sg20
I16364
sg21
g0
(g22
g23
(dp409
I00
I16275
sI01
I89
stp410
Rp411
sg27
I2
sg28
F16365.0
sbs(g8
S'contains(bored)'
p412
tp413
g0
(g15
g2
Ntp414
Rp415
(dp416
g19
F0.5
sg20
I16364
sg21
g0
(g22
g23
(dp417
I00
I16196
sI01
I168
stp418
Rp419
sg27
I2
sg28
F16365.0
sbs(g10
S'contains(awesome)'
p420
tp421
g0
(g15
g2
Ntp422
Rp423
(dp424
g19
F0.5
sg20
I126261
sg21
g0
(g22
g23
(dp425
I00
I123305
sI01
I2956
stp426
Rp427
sg27
I2
sg28
F126262.0
sbs(g8
S'contains(someday)'
p428
tp429
g0
(g15
g2
Ntp430
Rp431
(dp432
g19
F0.5
sg20
I16364
sg21
g0
(g22
g23
(dp433
I00
I16301
sI01
I63
stp434
Rp435
sg27
I2
sg28
F16365.0
sbs(g9
S'contains(maths)'
p436
tp437
g0
(g15
g2
Ntp438
Rp439
(dp440
g19
F0.5
sg20
I79161
sg21
g0
(g22
g23
(dp441
I00
I79119
sI01
I42
stp442
Rp443
sg27
I2
sg28
F79162.0
sbs(g8
g101
tp444
g0
(g15
g2
Ntp445
Rp446
(dp447
g19
F0.5
sg20
I16364
sg21
g0
(g22
g23
(dp448
F56.25
I194
sF78.25
I44
sF-79.76
I1
sF90.09
I25
sF44.75
I133
sF17.0
I3
sF27.15
I12
sF99.56
I15
sF96.52
I13
sF84.68
I46
sF39.0
I22
sF101.26
I1
sF-12.78
I1
sF-103.47
I1
sF63.7
I390
sF18.02
I1
sF55.24
I265
sF61.0
I3
sF-5.32
I2
sF64.37
I18
sF-105.13
I1
sF84.0
I14
sF68.1
I194
sF107.01
I3
sF65.39
I9
sF-30.72
I2
sF106.0
I4
sF-27.31
I1
sF32.23
I1
sF83.33
I5
sF49.82
I25
sF60.31
I16
sF129.0
I2
sF151.0
I1
sF-35.43
I1
sF85.02
I9
sF11.25
I2
sF-97.38
I1
sF61.67
I520
sF37.98
I24
sF37.3
I39
sF68.77
I38
sF-92.98
I1
sF120.55
I6
sF94.15
I35
sF-79.45
I1
sF33.58
I23
sF21.74
I6
sF50.5
I46
sF83.67
I1
sF-101.1
I1
sF10.91
I1
sF41.03
I30
sF-89.94
I1
sF41.7
I130
sF78.59
I43
sF11.58
I1
sF-50.68
I1
sF-57.11
I3
sF14.98
I1
sF24.79
I1
sF20.72
I7
sF34.93
I4
sF24.1
I1
sF54.9
I12
sF25.46
I11
sF-72.34
I1
sF65.05
I133
sF40.69
I136
sF49.49
I33
sF22.07
I1
sF28.51
I11
sF-51.02
I2
sF6.17
I5
sF44.42
I1
sF30.53
I7
sF75.88
I13
sF115.13
I17
sF74.86
I4
sF67.76
I42
sF-959.42
I1
sF-21.24
I1
sF135.1
I1
sF41.71
I2
sF35.62
I1
sF24.45
I4
sF7.86
I2
sF32.56
I6
sF80.28
I27
sF-63.54
I2
sF92.8
I23
sF8.21
I1
sF29.18
I18
sF145.93
I1
sF5.85
I1
sF-76.4
I1
sF74.87
I2
sF60.32
I3
sF-25.3
I1
sF-12.77
I2
sF-79.11
I1
sF81.3
I2
sF73.18
I1
sF13.95
I2
sF5.16
I1
sF56.93
I29
sF83.66
I51
sF-5.99
I1
sF40.34
I13
sF70.47
I9
sF35.28
I3
sF46.11
I1
sF-6.33
I1
sF43.39
I6
sF114.12
I22
sF-91.63
I1
sF79.26
I35
sF47.8
I4
sF20.39
I1
sF-131.56
I1
sF58.62
I393
sF-2.95
I1
sF91.78
I6
sF-97.72
I1
sF101.94
I2
sF51.18
I443
sF63.03
I1
sF87.39
I3
sF44.07
I84
sF18.03
I3
sF86.03
I18
sF44.41
I15
sF34.94
I15
sF76.56
I41
sF54.22
I331
sF63.02
I98
sF97.2
I36
sF21.07
I1
sF-467.82
I1
sF103.63
I29
sF77.23
I31
sF74.19
I125
sF20.38
I1
sF10.56
I1
sF18.35
I1
sF-211.7
I1
sF34.6
I32
sF141.53
I1
sF19.03
I4
sF52.54
I1
sF42.73
I1
sF40.01
I23
sF68.78
I2
sF1.1
I1
sF79.6
I38
sF100.58
I21
sF105.66
I41
sF-67.6
I1
sF-49.67
I1
sF75.21
I1
sF73.52
I1
sF37.99
I1
sF51.85
I11
sF-31.73
I1
sF54.23
I1
sF79.94
I7
sF95.17
I27
sF108.36
I1
sF-104.83
I2
sF69.45
I10
sF-236.08
I1
sF43.4
I8
sF-52.35
I1
sF-73.69
I1
sF23.09
I2
sF93.48
I10
sF22.42
I4
sF64.04
I91
sF147.96
I1
sF-0.94
I1
sF64.71
I285
sF-109.91
I2
sF-12.44
I1
sF9.56
I2
sF2.79
I1
sF87.72
I37
sF52.2
I1
sF123.59
I8
sF32.22
I32
sF23.1
I2
sF29.19
I1
sF33.25
I1
sF91.11
I22
sF0.76
I1
sF65.06
I3
sF-493.87
I1
sF26.48
I4
sF-24.27
I1
sF12.95
I1
sF118.18
I11
sF81.97
I8
sF-81.48
I2
sF9.91
I2
sF22.08
I5
sF-63.2
I1
sF35.27
I40
sF71.14
I231
sF-696.88
I1
sF131.38
I1
sF66.4
I15
sF52.87
I13
sF60.99
I56
sF13.62
I3
sF65.73
I156
sF-8.38
I2
sF-20.91
I2
sF21.06
I2
sF14.63
I1
sF-27.99
I1
sF22.09
I1
sF16.32
I3
sF72.16
I214
sF17.34
I3
sF37.64
I73
sF56.26
I6
sF77.57
I41
sF43.06
I76
sF23.43
I3
sF16.33
I1
sF-21.92
I1
sF-5.33
I1
sF-1.26
I1
sF41.37
I4
sF31.22
I3
sF-53.03
I1
sF29.86
I8
sF119.87
I1
sF90.43
I2
sF46.1
I154
sF72.84
I3
sF116.48
I1
sF17.68
I3
sF15.64
I2
sF20.04
I1
sF42.05
I1
sF96.86
I4
sF133.06
I3
sF72.83
I10
sF28.5
I1
sF48.81
I47
sF61.33
I19
sF93.82
I1
sF73.85
I21
sF59.97
I1
sF-11.07
I1
sF64.38
I6
sF-157.62
I1
sF53.89
I4
sF-531.89
I1
sF20.05
I4
sF-42.88
I1
sF-217.51
I1
sF58.63
I1
sF38.31
I34
sF-121.41
I1
sF99.91
I3
sF97.53
I11
sF46.45
I1
sF117.5
I5
sF112.09
I10
sF95.5
I11
sF53.55
I119
sF47.12
I219
sF39.68
I1
sF121.56
I1
sF36.96
I4
sF118.52
I1
sF92.12
I38
sF108.7
I6
sF77.91
I4
sF62.69
I2
sF26.14
I12
sF-273.01
I1
sF89.75
I29
sF98.55
I15
sF50.16
I376
sF116.83
I1
sF69.11
I224
sF9.89
I2
sF42.72
I156
sF51.52
I77
sF31.21
I23
sF115.47
I2
sF-48.31
I1
sF142.88
I2
sF34.26
I35
sF66.07
I140
sF18.01
I2
sF-228.96
I1
sF8.22
I1
sF58.29
I1
sF-2525.92
I1
sF28.85
I1
sF14.97
I1
sF-918.0
I1
sF-3.31
I1
sF-258.13
I1
sF-235.73
I1
sF47.79
I92
sF59.64
I416
sF62.34
I18
sF-106.82
I1
sF50.51
I1
sF37.31
I7
sF-47.61
I1
sF56.59
I256
sF84.34
I9
sF-41.19
I1
sF10.24
I1
sF27.49
I8
sF125.96
I1
sF-3.97
I1
sF82.31
I12
sF75.54
I36
sF-345.69
I1
sF45.76
I145
sF90.77
I25
sF43.07
I1
sF57.27
I121
sF78.93
I2
sF62.35
I1
sF-4.31
I1
sF58.28
I53
sF100.24
I30
sF70.8
I9
sF36.3
I1
sF85.36
I4
sF-138.96
I1
sF66.75
I3
sF27.5
I1
sF114.45
I3
sF-43.89
I1
sF58.96
I26
sF86.71
I35
sF57.95
I16
sF38.66
I99
sF55.58
I217
sF30.88
I5
sF91.44
I5
sF29.52
I12
sF-1.28
I2
sF45.42
I9
sF56.6
I4
sF-132.2
I1
sF108.03
I12
sF-58.46
I1
sF55.92
I11
sF1.78
I1
sF28.52
I1
sF89.08
I19
sF72.5
I34
sF18.7
I2
sF25.8
I12
sF23.44
I1
sF-319.63
I1
sF82.65
I42
sF39.33
I22
sF60.65
I478
sF92.46
I9
sF110.06
I6
sF53.21
I459
sF80.62
I49
sF71.15
I3
sF30.21
I1
sF46.44
I23
sF143.9
I1
sF-76.05
I1
sF77.58
I1
sF36.97
I17
sF45.77
I3
sF134.08
I1
sF67.08
I171
sF-10.74
I1
sF-361.93
I1
sF0.77
I1
sF107.69
I12
sF81.29
I23
sF67.42
I7
sF4.48
I1
sF-240.12
I1
sF106.34
I1
sF140.51
I1
sF8.2
I1
sF-342.64
I1
sF49.48
I6
sF36.28
I35
sF-444.82
I1
sF50.84
I15
sF49.15
I331
sF-124.79
I1
sF-52.71
I1
sF87.05
I21
sF27.83
I13
sF9.22
I2
sF-937.09
I1
sF26.47
I3
sF59.3
I41
sF-57.45
I1
sF42.04
I56
sF54.57
I4
sF79.27
I1
sF-157.91
I1
sF-366.66
I1
sF54.56
I176
sF57.61
I343
sF53.88
I11
sF88.74
I43
sF13.96
I1
sF73.86
I1
sF-3.29
I1
sF22.75
I8
sF-24.29
I1
sF102.95
I2
sF-49.64
I1
sF73.51
I20
sF7.54
I1
sF49.83
I3
sF36.63
I44
sF88.06
I23
sF21.4
I1
sF126.98
I1
sF40.35
I5
sF-906.64
I1
sF39.67
I108
sF123.93
I2
sF158.44
I1
sF51.86
I9
sF-42.89
I2
sF-350.76
I1
sF103.97
I7
sF74.53
I25
sF2.11
I1
sF-124.41
I1
sF109.04
I3
sF-155.59
I1
sF27.16
I1
sF32.9
I5
sF52.19
I432
sF58.97
I1
sF80.96
I12
sF85.35
I1
sF-143.74
I1
sF47.46
I16
sF52.53
I79
sF50.85
I1
sF-183.96
I1
sF75.55
I1
sF-62.53
I1
sF4.82
I1
sF105.32
I2
sF57.94
I1
sF19.71
I9
sF-280.39
I1
sF12.94
I1
sF104.64
I30
sF7.53
I1
sF-3.98
I2
sF-387.64
I1
sF75.2
I83
sF89.76
I1
sF98.89
I1
sF63.36
I15
sF111.07
I10
sF99.23
I21
sF69.79
I28
sF76.9
I5
sF31.55
I19
sF-35.12
I1
sF-15.81
I2
sF3.48
I1
sF43.73
I173
sF76.22
I42
sF-181.27
I1
sF62.01
I81
sF30.87
I9
sF45.09
I111
sF-116.29
I1
sF-29.7
I1
sF12.26
I4
sF48.47
I41
sF70.81
I4
sF36.29
I2
sF94.49
I19
sF-58.13
I1
sF6.84
I1
sF-9.74
I1
sF48.13
I233
sF-142.73
I1
sF98.21
I20
sF77.24
I2
sF-66.9
I1
sF131.04
I2
sF120.89
I1
sF104.98
I2
sF-41.21
I1
sF-485.41
I1
sF83.32
I21
sF38.32
I3
sF6.51
I1
sF31.89
I5
sF41.36
I16
sF97.88
I4
sF71.48
I19
sF4.49
I1
sF68.44
I13
sF32.57
I13
sF86.04
I1
sF28.17
I10
sF33.92
I9
sF24.11
I8
sF8.55
I1
sF4.14
I1
sF-14.81
I1
sF14.29
I3
sF62.68
I473
sF-108.89
I1
sF15.31
I4
sF23.77
I6
sF-1.94
I1
sF22.41
I1
sF101.59
I11
sF18.69
I6
sF85.69
I46
sF18.36
I3
sF-64.56
I2
sF117.16
I23
sF-38.5
I1
sF8.54
I1
sF125.62
I2
sF113.1
I9
sF116.15
I9
sF96.18
I34
sF113.44
I2
sF35.95
I19
sF-334.18
I1
sF20.06
I1
sF9.9
I1
sF32.91
I5
sF102.61
I15
sF-114.3
I1
sF38.99
I10
sF122.58
I10
sF73.17
I155
sF-273.35
I1
sF34.27
I1
sF93.14
I39
sF33.24
I33
sF-2.96
I1
sF19.37
I2
sF-230.71
I1
sF70.13
I240
sF26.82
I2
sF55.91
I5
sF127.99
I2
sF-366.33
I1
sF30.2
I22
sF45.43
I13
sF28.84
I2
sF59.98
I29
sF46.78
I93
sF-14.13
I1
sF39.34
I3
sF60.66
I3
sF-173.53
I1
sF66.74
I92
sF-52.37
I1
sF25.12
I13
sF113.78
I1
sF124.27
I1
sF106.67
I41
sF88.4
I2
sF68.43
I1
sF0.08
I1
sF42.38
I19
sF81.63
I51
sF-224.24
I1
sF-69.26
I1
sF118.86
I2
sF-70.99
I1
sF89.42
I4
sF15.65
I1
sF-24.94
I1
sF23.78
I1
sF-224.28
I1
sF24.78
I11
sF26.81
I9
sF71.82
I24
sF95.85
I6
sF-36.13
I1
sF35.61
I46
sF86.37
I4
sF50.17
I1
sF-323.02
I1
sF-17.84
I1
sF30.54
I12
sF66.41
I2
sF82.98
I10
sF119.53
I2
stp449
Rp450
sg27
I1890
sg28
F17309.0
sbs(g10
S'contains(mad)'
p451
tp452
g0
(g15
g2
Ntp453
Rp454
(dp455
g19
F0.5
sg20
I126261
sg21
g0
(g22
g23
(dp456
I00
I125670
sI01
I591
stp457
Rp458
sg27
I2
sg28
F126262.0
sbs(g10
S'contains(maths)'
p459
tp460
g0
(g15
g2
Ntp461
Rp462
(dp463
g19
F0.5
sg20
I126261
sg21
g0
(g22
g23
(dp464
I00
I126180
sI01
I81
stp465
Rp466
sg27
I2
sg28
F126262.0
sbs(g10
S'contains(album)'
p467
tp468
g0
(g15
g2
Ntp469
Rp470
(dp471
g19
F0.5
sg20
I126261
sg21
g0
(g22
g23
(dp472
I00
I125758
sI01
I503
stp473
Rp474
sg27
I2
sg28
F126262.0
sbs(g9
S'contains(dating)'
p475
tp476
g0
(g15
g2
Ntp477
Rp478
(dp479
g19
F0.5
sg20
I79161
sg21
g0
(g22
g23
(dp480
I00
I78316
sI01
I845
stp481
Rp482
sg27
I2
sg28
F79162.0
sbs(g8
S'contains(mad)'
p483
tp484
g0
(g15
g2
Ntp485
Rp486
(dp487
g19
F0.5
sg20
I16364
sg21
g0
(g22
g23
(dp488
I00
I16259
sI01
I105
stp489
Rp490
sg27
I2
sg28
F16365.0
sbs(g10
S'contains(dumb)'
p491
tp492
g0
(g15
g2
Ntp493
Rp494
(dp495
g19
F0.5
sg20
I126261
sg21
g0
(g22
g23
(dp496
I00
I126071
sI01
I190
stp497
Rp498
sg27
I2
sg28
F126262.0
sbs(g10
S'contains(sis)'
p499
tp500
g0
(g15
g2
Ntp501
Rp502
(dp503
g19
F0.5
sg20
I126261
sg21
g0
(g22
g23
(dp504
I00
I126193
sI01
I68
stp505
Rp506
sg27
I2
sg28
F126262.0
sbs(g9
S'contains(bored)'
p507
tp508
g0
(g15
g2
Ntp509
Rp510
(dp511
g19
F0.5
sg20
I79161
sg21
g0
(g22
g23
(dp512
I00
I78247
sI01
I914
stp513
Rp514
sg27
I2
sg28
F79162.0
sbs(g9
S'contains(semester)'
p515
tp516
g0
(g15
g2
Ntp517
Rp518
(dp519
g19
F0.5
sg20
I79161
sg21
g0
(g22
g23
(dp520
I00
I79069
sI01
I92
stp521
Rp522
sg27
I2
sg28
F79162.0
sbs(g10
S'contains(someday)'
p523
tp524
g0
(g15
g2
Ntp525
Rp526
(dp527
g19
F0.5
sg20
I126261
sg21
g0
(g22
g23
(dp528
I00
I125853
sI01
I408
stp529
Rp530
sg27
I2
sg28
F126262.0
sbs(g8
S'contains(sis)'
p531
tp532
g0
(g15
g2
Ntp533
Rp534
(dp535
g19
F0.5
sg20
I16364
sg21
g0
(g22
g23
(dp536
I00
I16348
sI01
I16
stp537
Rp538
sg27
I2
sg28
F16365.0
sbs(g9
S'contains(development)'
p539
tp540
g0
(g15
g2
Ntp541
Rp542
(dp543
g19
F0.5
sg20
I79161
sg21
g0
(g22
g23
(dp544
I00
I75413
sI01
I3748
stp545
Rp546
sg27
I2
sg28
F79162.0
sbs(g8
S'contains(awesome)'
p547
tp548
g0
(g15
g2
Ntp549
Rp550
(dp551
g19
F0.5
sg20
I16364
sg21
g0
(g22
g23
(dp552
I00
I15943
sI01
I421
stp553
Rp554
sg27
I2
sg28
F16365.0
sbs(g9
g109
tp555
g0
(g15
g2
Ntp556
Rp557
(dp558
g19
F0.5
sg20
I79161
sg21
g0
(g22
g23
(dp559
F9.5
I3693
sF11.5
I3165
sF2.0
I3
sF75.5
I1
sF4.0
I792
sF6.0
I1415
sF8.0
I1566
sF10.0
I58
sF11.0
I15
sF13.0
I1102
sF15.0
I602
sF17.0
I135
sF33.4
I1
sF19.0
I21
sF20.0
I19
sF21.0
I4
sF22.0
I50
sF24.0
I13
sF172.5
I1
sF27.0
I5
sF28.0
I2
sF29.0
I12
sF30.0
I5
sF0.5
I623
sF32.0
I1
sF192.4
I1
sF34.0
I1
sF35.0
I1
sF36.0
I7
sF38.0
I2
sF39.0
I1
sF40.0
I1
sF18.2
I28
sF5.2
I1298
sF43.0
I3
sF45.0
I4
sF52.0
I1
sF54.0
I2
sF61.0
I4
sF63.0
I1
sF63.3
I1
sF147.9
I2
sF66.0
I1
sF68.0
I2
sF70.0
I1
sF73.0
I1
sF75.0
I1
sF82.0
I1
sF84.0
I1
sF64.1
I1
sF-8.1
I2
sF89.0
I1
sF91.0
I1
sF46.2
I5
sF93.0
I1
sF2.5
I771
sF10.4
I31
sF70.7
I3
sF22.5
I10
sF27.8
I11
sF20.9
I20
sF116.0
I1
sF123.0
I1
sF128.0
I1
sF130.0
I1
sF139.0
I2
sF144.0
I1
sF34.1
I8
sF13.5
I255
sF2.4
I55
sF80.9
I3
sF179.6
I1
sF96.5
I1
sF171.0
I2
sF177.0
I1
sF84.8
I1
sF33.3
I17
sF31.0
I4
sF192.0
I1
sF173.3
I3
sF19.2
I14
sF108.9
I2
sF-4.2
I18
sF31.3
I6
sF4.1
I337
sF36.7
I1
sF217.0
I1
sF32.9
I7
sF33.5
I3
sF15.1
I11
sF22.1
I9
sF-1.9
I13
sF140.2
I1
sF63.7
I1
sF21.3
I19
sF286.0
I1
sF234.5
I1
sF38.3
I1
sF50.4
I2
sF179.5
I1
sF16.2
I318
sF22.2
I5
sF11.4
I66
sF23.6
I15
sF25.3
I8
sF72.7
I1
sF52.4
I1
sF40.7
I3
sF76.6
I2
sF43.5
I1
sF25.1
I18
sF40.3
I3
sF225.6
I1
sF26.5
I6
sF220.9
I1
sF23.2
I27
sF137.8
I1
sF2.1
I838
sF212.7
I1
sF3.3
I795
sF11.9
I2676
sF89.8
I1
sF73.8
I1
sF66.4
I1
sF54.4
I3
sF42.7
I4
sF46.1
I4
sF96.1
I1
sF-2.7
I5
sF51.6
I3
sF42.3
I5
sF710.4
I1
sF-1.8
I401
sF77.4
I1
sF53.6
I3
sF27.5
I6
sF25.9
I17
sF97.3
I1
sF12.7
I1751
sF10.6
I5
sF59.8
I2
sF190.1
I1
sF48.1
I2
sF27.1
I6
sF28.8
I5
sF32.6
I4
sF141.4
I1
sF25.2
I7
sF26.9
I3
sF34.3
I2
sF64.5
I1
sF11.1
I3471
sF0.1
I474
sF10.2
I2
sF61.8
I1
sF529.0
I1
sF43.9
I2
sF20.4
I28
sF50.1
I2
sF29.8
I13
sF220.5
I1
sF29.5
I2
sF94.1
I2
sF26.2
I1
sF27.9
I8
sF66.5
I1
sF139.7
I1
sF13.4
I1266
sF69.2
I2
sF85.2
I1
sF73.1
I1
sF29.1
I2
sF138.6
I1
sF29.6
I4
sF41.5
I2
sF33.2
I3
sF69.9
I1
sF-6.6
I5
sF167.4
I1
sF62.2
I2
sF32.8
I2
sF64.9
I1
sF141.7
I1
sF839.8
I1
sF13.9
I92
sF105.8
I1
sF26.3
I16
sF46.9
I4
sF1162.7
I1
sF101.9
I1
sF38.6
I1
sF28.2
I7
sF29.9
I1
sF77.8
I2
sF57.8
I1
sF124.2
I1
sF16.3
I3
sF143.3
I2
sF5.9
I6
sF86.4
I2
sF43.4
I5
sF-2.6
I39
sF9.6
I139
sF55.5
I1
sF48.9
I3
sF31.1
I1
sF37.2
I10
sF29.2
I5
sF30.9
I1
sF103.1
I3
sF36.8
I2
sF214.2
I1
sF65.3
I1
sF14.9
I32
sF17.3
I139
sF60.2
I1
sF13.1
I740
sF26.1
I8
sF82.8
I2
sF54.7
I3
sF57.5
I3
sF32.3
I1
sF39.2
I1
sF42.6
I3
sF122.3
I1
sF30.2
I9
sF38.8
I3
sF230.3
I1
sF15.4
I450
sF-2.2
I184
sF16.6
I211
sF151.8
I1
sF124.6
I1
sF125.7
I1
sF110.9
I2
sF101.2
I1
sF56.7
I5
sF69.6
I1
sF59.5
I1
sF-4.6
I43
sF56.3
I4
sF1.3
I757
sF44.6
I3
sF31.2
I3
sF17.7
I129
sF374.2
I1
sF179.2
I1
sF20.6
I6
sF15.9
I3
sF80.1
I1
sF17.6
I2
sF19.3
I75
sF121.8
I1
sF44.2
I4
sF461.1
I1
sF98.4
I1
sF17.4
I70
sF58.7
I1
sF97.6
I1
sF62.1
I1
sF74.2
I1
sF58.3
I3
sF7.2
I2009
sF70.4
I1
sF42.1
I1
sF39.4
I1
sF70.3
I1
sF2063.7
I1
sF77.3
I1
sF18.6
I16
sF25.5
I17
sF6.7
I12
sF14.6
I833
sF16.7
I1
sF18.4
I3
sF128.1
I1
sF14.3
I49
sF22.8
I40
sF7.9
I1234
sF119.1
I2
sF41.4
I1
sF94.5
I1
sF32.5
I6
sF19.6
I22
sF101.5
I2
sF23.5
I14
sF19.4
I16
sF38.4
I2
sF6.8
I1819
sF76.2
I2
sF158.5
I2
sF116.3
I1
sF30.8
I7
sF2.8
I53
sF-5.8
I3
sF30.5
I1
sF-1.5
I100
sF128.8
I1
sF78.2
I1
sF117.2
I1
sF118.1
I1
sF8.8
I667
sF223.9
I1
sF120.3
I3
sF45.4
I5
sF3.6
I458
sF207.7
I1
sF36.5
I1
sF3.7
I676
sF5.5
I1
sF1.7
I519
sF71.5
I2
sF19.7
I73
sF21.4
I5
sF91.8
I1
sF113.6
I1
sF90.2
I1
sF94.9
I2
sF24.8
I11
sF9.2
I146
sF124.3
I1
sF50.8
I1
sF66.8
I2
sF35.7
I4
sF36.3
I2
sF24.5
I4
sF35.3
I2
sF6.3
I6
sF22.4
I42
sF34.7
I5
sF53.2
I2
sF208.4
I1
sF-3.8
I87
sF22.9
I14
sF52.8
I1
sF41.1
I2
sF110.5
I1
sF40.5
I1
sF33.9
I4
sF108.5
I1
sF37.3
I1
sF20.2
I5
sF38.7
I6
sF26.8
I2
sF21.7
I14
sF144.8
I3
sF15.5
I4
sF58.6
I2
sF67.2
I1
sF-10.5
I2
sF24.3
I18
sF-3.4
I23
sF4.4
I1033
sF43.1
I1
sF35.9
I4
sF337.5
I1
sF76.3
I1
sF185.8
I1
sF86.7
I1
sF22.7
I5
sF24.4
I5
sF129.6
I1
sF106.6
I1
sF-6.2
I1
sF10.8
I1
sF14.7
I32
sF10.7
I3964
sF9.1
I3333
sF31.8
I2
sF8.7
I2709
sF112.1
I2
sF37.9
I4
sF25.6
I5
sF27.3
I2
sF2.9
I980
sF23.7
I7
sF11.8
I242
sF45.8
I2
sF7.6
I2127
sF-3.1
I1
sF91.4
I1
sF59.2
I1
sF60.6
I3
sF62.6
I1
sF111.3
I1
sF4.9
I22
sF46.5
I9
sF39.9
I3
sF10.3
I4028
sF28.3
I3
sF24.7
I17
sF26.4
I1
sF123.8
I1
sF23.9
I8
sF24.1
I3
sF169.4
I1
sF34.9
I2
sF57.4
I1
sF-1.1
I277
sF48.5
I4
sF41.9
I4
sF217.8
I1
sF45.3
I1
sF82.5
I2
sF25.7
I5
sF27.4
I6
sF44.9
I1
sF24.9
I11
sF361.7
I1
sF161.6
I1
sF71.1
I1
sF12.2
I179
sF59.4
I3
sF4.8
I1114
sF-7.4
I2
sF47.7
I3
sF12.6
I536
sF50.5
I1
sF28.6
I11
sF47.3
I5
sF30.3
I2
sF162.8
I1
sF79.2
I1
sF26.7
I26
sF28.4
I6
sF27.6
I4
sF113.3
I1
sF69.7
I1
sF87.1
I1
sF27.2
I6
sF419.4
I1
sF20.1
I31
sF34.5
I11
sF196.3
I1
sF115.2
I1
sF-1.4
I132
sF61.4
I1
sF49.7
I3
sF4.5
I139
sF49.3
I3
sF5.6
I1171
sF37.6
I3
sF-0.3
I245
sF103.5
I1
sF27.7
I1
sF29.4
I11
sF173.7
I1
sF65.7
I1
sF66.1
I2
sF1765.7
I1
sF107.8
I1
sF3.2
I180
sF84.4
I1
sF-8.9
I1
sF92.6
I1
sF-7.8
I2
sF75.8
I1
sF51.7
I1
sF34.8
I3
sF55.1
I1
sF127.3
I1
sF30.6
I10
sF21.6
I32
sF23.3
I12
sF235.3
I1
sF39.6
I1
sF28.7
I2
sF30.4
I1
sF12.3
I2292
sF77.7
I1
sF13.8
I1113
sF14.5
I2
sF16.5
I80
sF146.4
I1
sF8.3
I1157
sF57.1
I1
sF138.2
I1
sF-0.7
I296
sF31.6
I3
sF35.2
I3
sF31.4
I3
sF81.7
I1
sF80.5
I2
sF123.4
I1
sF117.9
I1
sF16.1
I36
sF7.1
I52
sF17.8
I51
sF14.2
I897
sF33.7
I10
sF23.1
I3
sF21.8
I3
sF6.4
I1576
sF59.1
I1
sF-7.3
I2
sF-5.4
I11
sF0.9
I650
sF79.7
I1
sF36.4
I10
sF78.9
I1
sF131.6
I1
sF83.6
I3
sF18.8
I10
sF18.5
I129
sF189.3
I2
sF16.9
I129
sF-2.3
I2
sF72.3
I2
sF21.2
I41
sF61.1
I1
sF18.9
I94
sF51.2
I2
sF31.7
I8
sF106.3
I1
sF32.2
I1
sF41.8
I1
sF15.3
I11
sF143.7
I2
sF18.1
I141
sF19.8
I7
sF68.4
I2
sF39.1
I8
sF100.4
I3
sF73.9
I1
sF88.3
I1
sF63.1
I1
sF2061.7
I1
sF8.4
I1805
sF55.9
I1
sF9.9
I3903
sF180.3
I1
sF40.4
I2
sF43.8
I6
sF32.1
I6
sF15.8
I385
sF20.8
I65
sF15.7
I27
sF20.5
I39
sF203.4
I1
sF297.4
I1
sF54.3
I2
sF131.2
I1
sF-7.0
I1
sF-5.0
I9
sF7.5
I106
sF-3.0
I45
sF-1.0
I22
stp560
Rp561
sg27
I830
sg28
F79576.0
sbs(g8
S'contains(crappy)'
p562
tp563
g0
(g15
g2
Ntp564
Rp565
(dp566
g19
F0.5
sg20
I16364
sg21
g0
(g22
g23
(dp567
I00
I16356
sI01
I8
stp568
Rp569
sg27
I2
sg28
F16365.0
sbs(g9
S'contains(crappy)'
p570
tp571
g0
(g15
g2
Ntp572
Rp573
(dp574
g19
F0.5
sg20
I79161
sg21
g0
(g22
g23
(dp575
I00
I79107
sI01
I54
stp576
Rp577
sg27
I2
sg28
F79162.0
sbs(g10
g109
tp578
g0
(g15
g2
Ntp579
Rp580
(dp581
g19
F0.5
sg20
I126261
sg21
g0
(g22
g23
(dp582
F9.5
I7699
sF13.5
I484
sF2.0
I1
sF65.8
I7
sF4.0
I522
sF0.5
I288
sF8.0
I2754
sF10.0
I64
sF11.0
I6
sF13.0
I1954
sF15.0
I1159
sF45.8
I2
sF17.0
I241
sF63.4
I2
sF19.0
I22
sF20.0
I18
sF21.0
I4
sF22.0
I39
sF24.0
I19
sF26.0
I3
sF27.0
I3
sF28.0
I4
sF29.0
I7
sF30.0
I2
sF31.0
I6
sF32.0
I1
sF33.0
I1
sF34.0
I2
sF36.0
I7
sF6.0
I1479
sF38.0
I4
sF39.0
I1
sF40.0
I1
sF41.0
I1
sF42.0
I1
sF45.0
I2
sF47.0
I1
sF51.0
I3
sF54.0
I1
sF56.0
I1
sF58.0
I4
sF60.0
I3
sF63.0
I1
sF180.4
I1
sF66.0
I1
sF67.0
I1
sF70.0
I1
sF74.0
I2
sF76.0
I2
sF77.0
I1
sF219.8
I1
sF82.0
I1
sF84.0
I2
sF72.1
I1
sF93.0
I2
sF2.5
I477
sF22.8
I39
sF99.0
I1
sF70.7
I1
sF22.5
I16
sF109.0
I1
sF718.1
I1
sF114.1
I1
sF114.0
I1
sF123.0
I1
sF144.0
I1
sF270.4
I1
sF155.0
I2
sF98.1
I1
sF11.5
I6285
sF2.9
I646
sF96.9
I1
sF80.2
I2
sF96.5
I1
sF84.8
I1
sF63.3
I1
sF10.4
I40
sF63.9
I1
sF194.0
I1
sF189.3
I1
sF59.4
I1
sF7.9
I2191
sF-3.1
I1
sF34.2
I1
sF4.1
I285
sF5.2
I1152
sF39.5
I4
sF21.8
I1
sF33.5
I1
sF15.1
I14
sF83.3
I1
sF3245.3
I1
sF21.2
I56
sF-1.9
I3
sF49.7
I4
sF25.3
I12
sF57.6
I1
sF1451.3
I1
sF38.7
I1
sF41.5
I2
sF34.9
I5
sF176.5
I1
sF38.3
I2
sF59.9
I1
sF290.0
I1
sF227.5
I1
sF18.2
I31
sF25.5
I14
sF22.2
I3
sF11.4
I30
sF9.6
I171
sF92.6
I1
sF88.7
I1
sF288.3
I1
sF97.3
I1
sF52.4
I4
sF40.7
I7
sF76.6
I1
sF43.5
I2
sF36.9
I2
sF40.3
I2
sF156.6
I1
sF86.7
I1
sF26.5
I6
sF172.9
I1
sF23.2
I28
sF24.9
I11
sF79.1
I2
sF228.7
I1
sF3.3
I507
sF11.9
I5371
sF89.8
I4
sF118.3
I1
sF65.0
I2
sF256.8
I1
sF73.2
I1
sF2.4
I17
sF42.7
I2
sF68.1
I1
sF-2.7
I2
sF26.1
I4
sF42.3
I3
sF-6.2
I1
sF93.4
I1
sF90.7
I1
sF51.6
I2
sF27.5
I5
sF25.9
I22
sF101.3
I1
sF12.2
I293
sF1791.8
I1
sF21.6
I40
sF458.0
I1
sF133.9
I1
sF158.1
I1
sF48.1
I2
sF83.6
I1
sF40.9
I2
sF27.1
I11
sF28.8
I4
sF25.2
I6
sF26.9
I2
sF149.2
I1
sF34.3
I2
sF112.5
I1
sF62.2
I1
sF0.1
I259
sF74.4
I1
sF58.4
I2
sF-2.2
I87
sF57.9
I1
sF20.4
I37
sF50.1
I2
sF49.5
I1
sF4.8
I936
sF29.8
I4
sF156.5
I1
sF29.5
I2
sF27.9
I7
sF67.7
I1
sF66.5
I1
sF251.7
I1
sF13.4
I2322
sF77.2
I1
sF390.6
I1
sF85.2
I2
sF149.9
I1
sF60.4
I2
sF166.6
I1
sF121.1
I1
sF29.1
I2
sF48.3
I2
sF28.6
I5
sF35.5
I1
sF102.7
I1
sF20.1
I78
sF-6.6
I3
sF179.9
I1
sF88.3
I1
sF11.1
I6873
sF141.7
I1
sF864.8
I1
sF13.9
I175
sF26.3
I15
sF1.6
I1
sF82.4
I1
sF252.5
I1
sF53.5
I1
sF31.8
I7
sF77.9
I2
sF35.2
I4
sF31.5
I1
sF105.5
I1
sF28.2
I5
sF29.9
I1
sF46.7
I1
sF34.8
I1
sF69.8
I1
sF61.8
I3
sF195.2
I1
sF16.3
I4
sF199.1
I1
sF5.9
I2
sF133.2
I1
sF42.4
I1
sF-4.2
I4
sF12.6
I839
sF151.1
I3
sF56.1
I3
sF48.9
I2
sF37.2
I2
sF40.6
I1
sF29.2
I9
sF30.9
I1
sF172.1
I1
sF36.8
I4
sF65.3
I1
sF14.9
I14
sF17.3
I219
sF60.2
I1
sF13.1
I1548
sF353.5
I1
sF23.6
I18
sF141.2
I1
sF54.7
I2
sF58.1
I1
sF66.2
I2
sF-1.4
I83
sF32.3
I1
sF165.5
I1
sF30.2
I4
sF31.9
I1
sF37.5
I1
sF35.4
I2
sF38.8
I5
sF15.4
I963
sF-11.3
I2
sF16.6
I420
sF14.6
I1466
sF215.8
I2
sF77.7
I1
sF86.4
I2
sF16.4
I1
sF101.2
I1
sF143.6
I1
sF73.6
I2
sF59.5
I1
sF-4.6
I9
sF56.3
I2
sF1.3
I416
sF262.6
I1
sF44.6
I2
sF75.9
I2
sF31.2
I2
sF111.1
I1
sF40.8
I1
sF25.7
I8
sF182.7
I1
sF15.9
I6
sF80.1
I1
sF19.3
I138
sF14.1
I1
sF133.5
I2
sF257.6
I1
sF17.4
I119
sF58.7
I2
sF97.6
I2
sF58.3
I2
sF7.2
I3009
sF70.4
I2
sF34.1
I3
sF46.6
I1
sF52.1
I4
sF42.8
I2
sF78.3
I1
sF196.7
I1
sF18.6
I13
sF24.5
I9
sF6.7
I4
sF168.3
I1
sF27.3
I4
sF165.2
I1
sF26.8
I5
sF60.7
I2
sF63.5
I1
sF60.3
I1
sF31.3
I3
sF41.4
I2
sF48.7
I1
sF33.1
I4
sF887.8
I1
sF32.5
I5
sF19.6
I21
sF21.3
I16
sF89.5
I1
sF64.7
I1
sF75.5
I2
sF159.6
I1
sF17.7
I216
sF19.4
I19
sF50.4
I1
sF309.4
I1
sF6.8
I2459
sF62.3
I1
sF104.7
I1
sF214.5
I1
sF74.6
I1
sF50.6
I1
sF43.4
I1
sF33.2
I3
sF36.6
I1
sF2.8
I6
sF99.7
I1
sF455.7
I1
sF30.5
I2
sF-1.5
I17
sF82.2
I1
sF216.6
I1
sF82.1
I2
sF79.4
I1
sF8.8
I1227
sF151.9
I1
sF271.3
I1
sF36.7
I2
sF328.6
I1
sF8.7
I5400
sF135.9
I1
sF120.3
I1
sF45.4
I5
sF140.6
I1
sF3.6
I278
sF2822.9
I1
sF33.7
I10
sF37.1
I3
sF27.2
I2
sF36.5
I3
sF3.2
I89
sF4.5
I137
sF33.3
I5
sF65.9
I1
sF72.7
I1
sF71.5
I3
sF19.7
I87
sF21.4
I2
sF65.1
I3
sF90.2
I1
sF110.9
I1
sF51.2
I1
sF9.2
I210
sF47.4
I2
sF77.5
I2
sF50.8
I1
sF35.7
I1
sF36.3
I2
sF39.1
I1
sF93.3
I2
sF23.5
I5
sF35.3
I1
sF24.3
I11
sF145.3
I1
sF407.3
I1
sF22.4
I48
sF46.2
I1
sF79.8
I1
sF171.8
I1
sF-0.7
I138
sF22.9
I6
sF1.7
I260
sF49.4
I2
sF30.8
I2
sF41.1
I1
sF40.5
I2
sF33.9
I2
sF65.5
I1
sF37.3
I2
sF19.2
I4
sF56.7
I1
sF27.8
I9
sF79.5
I1
sF21.7
I22
sF-1.8
I164
sF91.4
I1
sF15.5
I13
sF298.1
I1
sF58.6
I1
sF54.8
I1
sF222.4
I1
sF-0.3
I84
sF4.4
I775
sF43.1
I2
sF257.5
I1
sF122.3
I1
sF78.7
I2
sF22.7
I1
sF24.4
I12
sF77.1
I1
sF90.6
I2
sF10.8
I5
sF14.7
I28
sF57.2
I1
sF10.7
I7817
sF9.1
I6869
sF56.8
I1
sF14.2
I1758
sF152.7
I1
sF44.5
I1
sF20.6
I6
sF25.6
I4
sF41.3
I2
sF496.2
I1
sF54.4
I1
sF87.5
I2
sF23.7
I13
sF11.8
I380
sF47.8
I1
sF7.6
I3648
sF-2.6
I11
sF67.4
I2
sF34.6
I2
sF111.3
I1
sF4.9
I17
sF47.1
I1
sF10.3
I8031
sF28.3
I4
sF24.7
I15
sF26.4
I2
sF20.9
I22
sF197.5
I1
sF24.1
I14
sF-1.1
I89
sF221.3
I2
sF49.1
I3
sF241.2
I1
sF48.5
I1
sF41.9
I2
sF27.6
I6
sF94.5
I1
sF33.6
I1
sF95.5
I2
sF27.4
I3
sF32.9
I5
sF23.9
I10
sF80.6
I1
sF31.7
I6
sF144.5
I1
sF6.3
I2
sF68.8
I1
sF47.7
I1
sF75.6
I2
sF50.5
I1
sF47.3
I1
sF93.9
I1
sF32.2
I4
sF75.2
I2
sF26.7
I19
sF86.3
I3
sF67.1
I1
sF288.4
I1
sF25.1
I20
sF34.5
I7
sF204.8
I1
sF12.7
I3263
sF137.9
I1
sF1668.2
I1
sF-3.8
I34
sF87.2
I1
sF61.4
I2
sF72.8
I1
sF728.3
I1
sF29.6
I2
sF49.3
I2
sF5.6
I1197
sF175.3
I1
sF416.3
I1
sF37.6
I2
sF103.5
I1
sF27.7
I1
sF29.4
I6
sF33.8
I2
sF65.7
I1
sF103.9
I1
sF3.7
I531
sF22.1
I13
sF67.8
I1
sF32.8
I2
sF55.1
I1
sF2081.2
I1
sF54.5
I2
sF30.6
I6
sF51.3
I1
sF23.3
I6
sF187.3
I1
sF39.6
I1
sF28.7
I2
sF30.4
I5
sF12.3
I4596
sF32.4
I2
sF35.8
I1
sF13.8
I2067
sF8.4
I3662
sF70.1
I1
sF16.5
I92
sF8.3
I1917
sF88.4
I1
sF53.7
I1
sF333.2
I1
sF57.1
I1
sF138.2
I1
sF56.5
I1
sF31.6
I5
sF53.3
I2
sF55.2
I1
sF31.4
I2
sF129.3
I1
sF123.4
I1
sF14.3
I62
sF67.3
I1
sF16.1
I42
sF7.1
I12
sF17.8
I69
sF153.5
I1
sF122.6
I1
sF52.2
I2
sF71.9
I2
sF23.1
I3
sF64.2
I1
sF55.7
I4
sF6.4
I1964
sF24.8
I12
sF-3.4
I2
sF-5.4
I2
sF55.3
I3
sF0.9
I325
sF52.6
I1
sF211.8
I1
sF79.7
I1
sF30.7
I2
sF102.3
I1
sF36.4
I4
sF39.8
I1
sF78.9
I1
sF67.6
I1
sF18.8
I9
sF18.5
I154
sF150.3
I1
sF16.9
I182
sF20.2
I3
sF57.7
I1
sF65.4
I5
sF57.3
I1
sF2.1
I447
sF42.2
I2
sF64.6
I2
sF45.6
I2
sF380.8
I1
sF75.8
I1
sF38.4
I4
sF35.6
I1
sF15.3
I17
sF20.8
I52
sF18.1
I192
sF19.8
I7
sF76.4
I1
sF35.1
I3
sF2315.5
I1
sF16.2
I582
sF76.3
I1
sF478.7
I1
sF63.1
I4
sF69.4
I1
sF76.2
I1
sF9.9
I7865
sF44.2
I2
sF38.5
I1
sF43.8
I2
sF93.7
I1
sF32.1
I2
sF28.4
I5
sF15.8
I696
sF79.3
I2
sF2072.6
I1
sF15.7
I16
sF20.5
I37
sF171.4
I1
sF58.2
I2
sF18.9
I121
sF39.2
I2
sF171.2
I1
sF73.4
I1
sF-5.0
I1
sF7.5
I60
sF-3.0
I5
sF-1.0
I10
stp583
Rp584
sg27
I830
sg28
F126676.0
sbs(g8
S'contains(marriage)'
p585
tp586
g0
(g15
g2
Ntp587
Rp588
(dp589
g19
F0.5
sg20
I16364
sg21
g0
(g22
g23
(dp590
I00
I16077
sI01
I287
stp591
Rp592
sg27
I2
sg28
F16365.0
sbssS'_label_probdist'
p593
g0
(g15
g2
Ntp594
Rp595
(dp596
g19
F0.5
sg20
I221786
sg21
g0
(g22
g23
(dp597
g8
I16364
sg9
I79161
sg10
I126261
stp598
Rp599
sg27
I3
sg28
F221787.5
sbsb.